;
; poppler63.def (created by emximp)
;
LIBRARY popple63 INITINSTANCE TERMINSTANCE
DESCRIPTION 'poppler'
EXPORTS
  "_globalParams"
  "_builtinFonts"
  "_builtinFontSubst"
  "_zapfDingbatsEncoding"
  "_symbolEncoding"
  "_expertEncoding"
  "_standardEncoding"
  "_winAnsiEncoding"
  "_macExpertEncoding"
  "_macRomanEncoding"
  "__ZN3Gfx5opTabE"
  "__ZN18JArithmeticDecoder5qeTabE"
  "__ZN18JArithmeticDecoder9switchTabE"
  "__ZN18JArithmeticDecoder7nlpsTabE"
  "__ZN18JArithmeticDecoder7nmpsTabE"
  "_pdfDocEncoding"
  "_fofiType1CExpertSubsetCharset"
  "_fofiType1CExpertCharset"
  "_fofiType1CISOAdobeCharset"
  "_fofiType1CStdStrings"
  "_fofiType1ExpertEncoding"
  "_fofiType1StandardEncoding"
  "__ZN6Splash25pipeResultColorAlphaBlendE"
  "__ZN6Splash27pipeResultColorNoAlphaBlendE"
  "__ZN6Splash27pipeResultColorAlphaNoBlendE"
  "__ZZN6Splash10drawAALineEP10SplashPipeiiibhE9bitCount4"
  "__ZZN6Splash11drawAAPixelEP10SplashPipeiiE9bitCount4"
  "_splashColorModeNComps"
  "__ZN13GfxColorSpace12isNonMarkingEv"
  "__ZN7GfxFont9isCIDFontEv"
  "__ZN10SplashFont15getGlyphAdvanceEi"
  "__ZN9OutputDev16useFillColorStopEv"
  "__ZN9OutputDev11useDrawFormEv"
  "__ZN9OutputDev11needNonTextEv"
  "__ZN9OutputDev13needCharCountEv"
  "__ZN9OutputDev17needClipToCropBoxEv"
  "__ZN9OutputDev14checkPageSliceEP4PageddibbiiiibPFbPvES2_PFbP5AnnotS2_ES2_"
  "__ZN9OutputDev4dumpEv"
  "__ZN9OutputDev18updateAlphaIsShapeEP8GfxState"
  "__ZN9OutputDev18updateTextKnockoutEP8GfxState"
  "__ZN9OutputDev19updateFillColorStopEP8GfxStated"
  "__ZN9OutputDev13updateTextMatEP8GfxState"
  "__ZN9OutputDev15updateCharSpaceEP8GfxState"
  "__ZN9OutputDev12updateRenderEP8GfxState"
  "__ZN9OutputDev10updateRiseEP8GfxState"
  "__ZN9OutputDev15updateWordSpaceEP8GfxState"
  "__ZN9OutputDev18updateHorizScalingEP8GfxState"
  "__ZN9OutputDev13updateTextPosEP8GfxState"
  "__ZN9OutputDev15updateTextShiftEP8GfxStated"
  "__ZN9OutputDev11saveTextPosEP8GfxState"
  "__ZN9OutputDev14restoreTextPosEP8GfxState"
  "__ZN9OutputDev24axialShadedSupportExtendEP8GfxStateP15GfxAxialShading"
  "__ZN9OutputDev25radialShadedSupportExtendEP8GfxStateP16GfxRadialShading"
  "__ZN9OutputDev19patchMeshShadedFillEP8GfxStateP19GfxPatchMeshShading"
  "__ZN9OutputDev13beginStringOpEP8GfxState"
  "__ZN9OutputDev11endStringOpEP8GfxState"
  "__ZN9OutputDev11beginStringEP8GfxStateP9GooString"
  "__ZN9OutputDev9endStringEP8GfxState"
  "__ZN9OutputDev10drawStringEP8GfxStateP9GooString"
  "__ZN9OutputDev12incCharCountEi"
  "__ZN9OutputDev15beginActualTextEP8GfxStateP9GooString"
  "__ZN9OutputDev13endActualTextEP8GfxState"
  "__ZN9OutputDev8drawFormE3Ref"
  "__ZN9OutputDev9psXObjectEP6StreamS1_"
  "__ZN9OutputDev14getProfileHashEv"
  "__ZN9OutputDev11processLinkEP9AnnotLink"
  "__ZN21SplashFunctionPattern12testPositionEii"
  "__ZN21SplashFunctionPattern8isStaticEv"
  "__ZN21SplashFunctionPattern10getShadingEv"
  "__ZN21SplashFunctionPattern6isCMYKEv"
  "__ZN23SplashUnivariatePattern8isStaticEv"
  "__ZN23SplashUnivariatePattern10getShadingEv"
  "__ZN23SplashUnivariatePattern6isCMYKEv"
  "__ZN20SplashGouraudPattern8getColorEiiPh"
  "__ZN20SplashGouraudPattern12testPositionEii"
  "__ZN20SplashGouraudPattern8isStaticEv"
  "__ZN20SplashGouraudPattern6isCMYKEv"
  "__ZN20SplashGouraudPattern15isParameterizedEv"
  "__ZN20SplashGouraudPattern13getNTrianglesEv"
  "__ZN15SplashOutputDev20useTilingPatternFillEv"
  "__ZN15SplashOutputDev14useShadedFillsEi"
  "__ZN15SplashOutputDev10upsideDownEv"
  "__ZN15SplashOutputDev11useDrawCharEv"
  "__ZN15SplashOutputDev19interpretType3CharsEv"
  "__ZN18SplashAxialPattern12getParameterEddPd"
  "__ZN19SplashOutFontFileID7matchesEP16SplashFontFileID"
  "__ZN15SplashOutputDev14updateFlatnessEP8GfxState"
  "__ZN15SplashOutputDev18updateStrokeAdjustEP8GfxState"
  "__ZN15SplashOutputDev20updateFillColorSpaceEP8GfxState"
  "__ZN15SplashOutputDev22updateStrokeColorSpaceEP8GfxState"
  "__ZN15SplashOutputDev10updateFontEP8GfxState"
  "__ZN15SplashOutputDev7type3D0EP8GfxStatedd"
  "__ZN15SplashOutputDev15beginTextObjectEP8GfxState"
  "__ZN15SplashOutputDev18getVectorAntialiasEv"
  "__ZN15SplashOutputDev18setVectorAntialiasEb"
  "__ZN21SplashFunctionPatternD2Ev"
  "__ZTV21SplashFunctionPattern"
  "__ZN21SplashFunctionPatternD1Ev"
  "__ZN21SplashFunctionPatternD0Ev"
  "__ZN20SplashGouraudPatternD2Ev"
  "__ZTV18SplashGouraudColor"
  "__ZN20SplashGouraudPatternD1Ev"
  "__ZN20SplashGouraudPatternD0Ev"
  "__ZN19SplashRadialPatternD2Ev"
  "__ZTV23SplashUnivariatePattern"
  "__ZN19SplashRadialPatternD1Ev"
  "__ZN19SplashRadialPatternD0Ev"
  "__ZN18SplashAxialPatternD2Ev"
  "__ZN18SplashAxialPatternD1Ev"
  "__ZN18SplashAxialPatternD0Ev"
  "__ZN20SplashGouraudPattern21getParameterizedColorEd15SplashColorModePh"
  "__ZN23SplashUnivariatePattern12testPositionEii"
  "__ZN21SplashFunctionPattern8getColorEiiPh"
  "__ZN19SplashRadialPattern12getParameterEddPd"
  "__ZN15SplashOutputDev26unsetSoftMaskFromImageMaskEP8GfxStatePd"
  "__ZN15SplashOutputDevD2Ev"
  "__ZTV15SplashOutputDev"
  "__ZN15SplashOutputDevD1Ev"
  "__ZN15SplashOutputDevD0Ev"
  "__ZN15SplashOutputDev9updateCTMEP8GfxStatedddddd"
  "__ZN15SplashOutputDev13updateLineCapEP8GfxState"
  "__ZN15SplashOutputDev14updateLineJoinEP8GfxState"
  "__ZN15SplashOutputDev14updateLineDashEP8GfxState"
  "__ZN15SplashOutputDev16updateMiterLimitEP8GfxState"
  "__ZN15SplashOutputDev9saveStateEP8GfxState"
  "__ZN15SplashOutputDev12restoreStateEP8GfxState"
  "__ZN15SplashOutputDev15updateLineWidthEP8GfxState"
  "__ZN15SplashOutputDev15updateBlendModeEP8GfxState"
  "__ZN15SplashOutputDev17updateFillOpacityEP8GfxState"
  "__ZN15SplashOutputDev19updateStrokeOpacityEP8GfxState"
  "__ZN15SplashOutputDev20updatePatternOpacityEP8GfxState"
  "__ZN15SplashOutputDev19clearPatternOpacityEP8GfxState"
  "__ZN15SplashOutputDev19updateFillOverprintEP8GfxState"
  "__ZN15SplashOutputDev21updateStrokeOverprintEP8GfxState"
  "__ZN15SplashOutputDev19updateOverprintModeEP8GfxState"
  "__ZN15SplashOutputDev14updateTransferEP8GfxState"
  "__ZN19SplashOutFontFileIDD1Ev"
  "__ZTV19SplashOutFontFileID"
  "__ZN19SplashOutFontFileIDD0Ev"
  "__ZN15SplashOutputDev13endTextObjectEP8GfxState"
  "__ZN15SplashOutputDev7type3D1EP8GfxStatedddddd"
  "__ZN15SplashOutputDev12iccTransformEPvP12SplashBitmap"
  "__ZN15SplashOutputDev15tilingBitmapSrcEPvPhS1_"
  "__ZN15SplashOutputDev13clearSoftMaskEP8GfxState"
  "__ZN15SplashOutputDev20endTransparencyGroupEP8GfxState"
  "__ZN15SplashOutputDev22beginTransparencyGroupEP8GfxStatePdP13GfxColorSpacebbb"
  "__ZN15SplashOutputDev22paintTransparencyGroupEP8GfxStatePd"
  "__ZN15SplashOutputDev11setSoftMaskEP8GfxStatePdbP8FunctionP8GfxColor"
  "__ZN15SplashOutputDev17tilingPatternFillEP8GfxStateP3GfxP7CatalogP6ObjectPdiiP4DictS8_S8_iiiidd"
  "__ZN20SplashGouraudPattern11getTriangleEiPdS0_S0_S0_S0_S0_S0_S0_S0_"
  "__ZN15SplashOutputDev7endPageEv"
  "__ZN15SplashOutputDev12imageMaskSrcEPvPh"
  "__ZN15SplashOutputDev11iccImageSrcEPvPhS1_"
  "__ZN15SplashOutputDev13alphaImageSrcEPvPhS1_"
  "__ZN15SplashOutputDev22checkTransparencyGroupEP8GfxStateb"
  "__ZN15SplashOutputDev14maskedImageSrcEPvPhS1_"
  "__ZN15SplashOutputDev13drawImageMaskEP8GfxStateP6ObjectP6Streamiibbb"
  "__ZN15SplashOutputDev24setSoftMaskFromImageMaskEP8GfxStateP6ObjectP6StreamiibbPd"
  "__ZN15SplashOutputDev9updateAllEP8GfxState"
  "__ZN15SplashOutputDev15drawMaskedImageEP8GfxStateP6ObjectP6StreamiiP16GfxImageColorMapbS5_iibb"
  "__ZN23SplashUnivariatePattern8getColorEiiPh"
  "__ZN15SplashOutputDev8imageSrcEPvPhS1_"
  "__ZN20SplashGouraudPatternC2EbP8GfxStateP25GfxGouraudTriangleShading15SplashColorMode"
  "__ZTV20SplashGouraudPattern"
  "__ZN20SplashGouraudPatternC1EbP8GfxStateP25GfxGouraudTriangleShading15SplashColorMode"
  "__ZN15SplashOutputDev25gouraudTriangleShadedFillEP8GfxStateP25GfxGouraudTriangleShading"
  "__ZN20SplashGouraudPattern4copyEv"
  "__ZN21SplashFunctionPatternC2E15SplashColorModeP8GfxStateP18GfxFunctionShading"
  "__ZN21SplashFunctionPatternC1E15SplashColorModeP8GfxStateP18GfxFunctionShading"
  "__ZN21SplashFunctionPattern4copyEv"
  "__ZN23SplashUnivariatePatternC2E15SplashColorModeP8GfxStateP20GfxUnivariateShading"
  "__ZN23SplashUnivariatePatternC1E15SplashColorModeP8GfxStateP20GfxUnivariateShading"
  "__ZN23SplashUnivariatePatternD2Ev"
  "__ZN23SplashUnivariatePatternD1Ev"
  "__ZN23SplashUnivariatePatternD0Ev"
  "__ZN19SplashRadialPatternC2E15SplashColorModeP8GfxStateP16GfxRadialShading"
  "__ZTV19SplashRadialPattern"
  "__ZN19SplashRadialPatternC1E15SplashColorModeP8GfxStateP16GfxRadialShading"
  "__ZN19SplashRadialPattern4copyEv"
  "__ZN18SplashAxialPatternC2E15SplashColorModeP8GfxStateP15GfxAxialShading"
  "__ZTV18SplashAxialPattern"
  "__ZN18SplashAxialPatternC1E15SplashColorModeP8GfxStateP15GfxAxialShading"
  "__ZN18SplashAxialPattern4copyEv"
  "__ZN11T3FontCacheC2EP3Refddddiiiibb"
  "__ZN11T3FontCacheC1EP3Refddddiiiibb"
  "__ZN11T3FontCacheD2Ev"
  "__ZN11T3FontCacheD1Ev"
  "__ZN15SplashOutputDev17setupScreenParamsEdd"
  "__ZN15SplashOutputDevC2E15SplashColorModeibPhb18SplashThinLineModeb"
  "__ZN15SplashOutputDevC1E15SplashColorModeibPhb18SplashThinLineModeb"
  "__ZN15SplashOutputDev9startPageEiP8GfxStateP4XRef"
  "__ZN15SplashOutputDev8startDocEP6PDFDoc"
  "__ZN15SplashOutputDev8getColorEi"
  "__ZN15SplashOutputDev8getColorEP6GfxRGB"
  "__ZN15SplashOutputDev15updateFillColorEP8GfxState"
  "__ZN15SplashOutputDev17updateStrokeColorEP8GfxState"
  "__ZN15SplashOutputDev13getMatteColorE15SplashColorModeP16GfxImageColorMapP8GfxColorPh"
  "__ZN15SplashOutputDev19drawSoftMaskedImageEP8GfxStateP6ObjectP6StreamiiP16GfxImageColorMapbS5_iiS7_b"
  "__ZN15SplashOutputDev16setOverprintMaskEP13GfxColorSpacebiP8GfxColorb"
  "__ZN15SplashOutputDev12doUpdateFontEP8GfxState"
  "__ZN15SplashOutputDev8drawCharEP8GfxStateddddddjiPji"
  "__ZN15SplashOutputDev11convertPathEP8GfxStateP7GfxPathb"
  "__ZN15SplashOutputDev6strokeEP8GfxState"
  "__ZN15SplashOutputDev4fillEP8GfxState"
  "__ZN15SplashOutputDev6eoFillEP8GfxState"
  "__ZN15SplashOutputDev4clipEP8GfxState"
  "__ZN15SplashOutputDev6eoClipEP8GfxState"
  "__ZN15SplashOutputDev16clipToStrokePathEP8GfxState"
  "__ZN15SplashOutputDev18functionShadedFillEP8GfxStateP18GfxFunctionShading"
  "__ZN15SplashOutputDev14drawType3GlyphEP8GfxStateP11T3FontCacheP14T3FontCacheTagPh"
  "__ZN15SplashOutputDev14beginType3CharEP8GfxStateddddjPji"
  "__ZN15SplashOutputDev12endType3CharEP8GfxState"
  "__ZN15SplashOutputDev14useIccImageSrcEPv"
  "__ZN15SplashOutputDev9drawImageEP8GfxStateP6ObjectP6StreamiiP16GfxImageColorMapbPib"
  "__ZN15SplashOutputDev13setPaperColorEPh"
  "__ZN15SplashOutputDev14getBitmapWidthEv"
  "__ZN15SplashOutputDev15getBitmapHeightEv"
  "__ZN15SplashOutputDev10takeBitmapEv"
  "__ZN15SplashOutputDev12getModRegionEPiS0_S0_S0_"
  "__ZN15SplashOutputDev14clearModRegionEv"
  "__ZN15SplashOutputDev18setFreeTypeHintingEbb"
  "__ZN15SplashOutputDev20univariateShadedFillEP8GfxStateP23SplashUnivariatePatterndd"
  "__ZN15SplashOutputDev15axialShadedFillEP8GfxStateP15GfxAxialShadingdd"
  "__ZN15SplashOutputDev16radialShadedFillEP8GfxStateP16GfxRadialShadingdd"
  "__ZTI13SplashPattern"
  "__ZTS13SplashPattern"
  "__ZTI18SplashGouraudColor"
  "__ZTS18SplashGouraudColor"
  "__ZTI16SplashFontFileID"
  "__ZTS16SplashFontFileID"
  "__ZTI9OutputDev"
  "__ZTS9OutputDev"
  "__ZTS21SplashFunctionPattern"
  "__ZTI21SplashFunctionPattern"
  "__ZTS23SplashUnivariatePattern"
  "__ZTI23SplashUnivariatePattern"
  "__ZTS18SplashAxialPattern"
  "__ZTI18SplashAxialPattern"
  "__ZTS20SplashGouraudPattern"
  "__ZTI20SplashGouraudPattern"
  "__ZTS19SplashRadialPattern"
  "__ZTI19SplashRadialPattern"
  "__ZTS15SplashOutputDev"
  "__ZTI15SplashOutputDev"
  "__ZTI19SplashOutFontFileID"
  "__ZTS19SplashOutFontFileID"
  "__ZN6Stream9isEncoderEv"
  "__ZN6Stream14getImageParamsEPiP20StreamColorSpaceMode"
  "__ZN12FilterStream6getPosEv"
  "__ZN12FilterStream13getNextStreamEv"
  "__ZN12FilterStream15unfilteredResetEv"
  "__ZN9DCTStream7getKindEv"
  "__ZN9DCTStream11hasGetCharsEv"
  "__ZN9DCTStream8isBinaryEb"
  "__ZN9DCTStream8lookCharEv"
  "__ZN9DCTStreamD2Ev"
  "__ZTV9DCTStream"
  "__ZN9DCTStreamD1Ev"
  "__ZN9DCTStreamD0Ev"
  "__ZN9DCTStream7getCharEv"
  "__ZN9DCTStream8getCharsEiPh"
  "__ZN9DCTStream11getPSFilterEiPKc"
  "__ZN12FilterStream17getUnfilteredCharEv"
  "__ZN12FilterStream13getBaseStreamEv"
  "__ZN12FilterStream18getUndecodedStreamEv"
  "__ZN12FilterStream7getDictEv"
  "__ZN9DCTStream4initEv"
  "__ZN9DCTStreamC2EP6StreamiP6Objecti"
  "__ZN9DCTStreamC1EP6StreamiP6Objecti"
  "__ZN9DCTStream5resetEv"
  "__ZTI6Stream"
  "__ZTS6Stream"
  "__ZTI12FilterStream"
  "__ZTS12FilterStream"
  "__ZTS9DCTStream"
  "__ZTI9DCTStream"
  "__ZN6Stream11hasGetCharsEv"
  "__ZN12FlateEncoder7getKindEv"
  "__ZN12FlateEncoder11getPSFilterEiPKc"
  "__ZN12FlateEncoder8isBinaryEb"
  "__ZN12FlateEncoder9isEncoderEv"
  "__ZN12FlateEncoder5resetEv"
  "__ZN12FlateEncoderD2Ev"
  "__ZTV12FlateEncoder"
  "__ZN12FlateEncoderD1Ev"
  "__ZN12FlateEncoderD0Ev"
  "__ZN12FlateEncoder7getCharEv"
  "__ZN12FlateEncoder8lookCharEv"
  "__ZN12FlateEncoderC2EP6Stream"
  "__ZN12FlateEncoderC1EP6Stream"
  "__ZN12FlateEncoder7fillBufEv"
  "__ZTS12FlateEncoder"
  "__ZTI12FlateEncoder"
  "__ZN11FlateStream7getKindEv"
  "__ZN11FlateStream8isBinaryEb"
  "__ZN11FlateStream5resetEv"
  "__ZN11FlateStreamD2Ev"
  "__ZTV11FlateStream"
  "__ZN11FlateStreamD1Ev"
  "__ZN11FlateStreamD0Ev"
  "__ZN11FlateStream7getCharEv"
  "__ZN11FlateStream11getPSFilterEiPKc"
  "__ZN11FlateStreamC2EP6Streamiiii"
  "__ZN11FlateStreamC1EP6Streamiiii"
  "__ZN11FlateStream11fill_bufferEv"
  "__ZN11FlateStream10getRawCharEv"
  "__ZN11FlateStream11getRawCharsEiPi"
  "__ZN11FlateStream8lookCharEv"
  "__ZTS11FlateStream"
  "__ZTI11FlateStream"
  "__ZN16SignatureHandler12digestLengthE9SECOidTag"
  "__ZN16SignatureHandler13getSignerNameEv"
  "__ZN16SignatureHandler14getSigningTimeEv"
  "__ZN16SignatureHandler29getDefaultFirefoxCertDB_LinuxEv"
  "__ZN16SignatureHandler8init_nssEv"
  "__ZN16SignatureHandler15initHashContextEv"
  "__ZN16SignatureHandler10updateHashEPhi"
  "__ZN16SignatureHandlerD2Ev"
  "__ZN16SignatureHandlerD1Ev"
  "__ZN16SignatureHandler17CMS_MessageCreateEP10SECItemStr"
  "__ZN16SignatureHandler20CMS_SignedDataCreateEP16NSSCMSMessageStr"
  "__ZN16SignatureHandler20CMS_SignerInfoCreateEP19NSSCMSSignedDataStr"
  "__ZN16SignatureHandlerC2EPhi"
  "__ZN16SignatureHandlerC1EPhi"
  "__ZN16SignatureHandler17validateSignatureEv"
  "__ZN16SignatureHandler19validateCertificateEv"
  "__ZN16SignatureHandler16NSS_SigTranslateE24NSSCMSVerificationStatus"
  "__ZN16SignatureHandler17NSS_CertTranslateE13SECErrorCodes"
  "__ZN9JPXStream7getKindEv"
  "__ZN9JPXStream11getPSFilterEiPKc"
  "__ZN9JPXStream8isBinaryEb"
  "__ZN9JPXStream5closeEv"
  "__ZN9JPXStreamD2Ev"
  "__ZTV9JPXStream"
  "__ZN9JPXStreamD1Ev"
  "__ZN9JPXStreamD0Ev"
  "__ZN9JPXStreamC2EP6Stream"
  "__ZN9JPXStreamC1EP6Stream"
  "__ZN9JPXStream11fillReadBufEv"
  "__ZN9JPXStream7getCharEv"
  "__ZN9JPXStream8lookCharEv"
  "__ZN9JPXStream17readCodeBlockDataEP11JPXTileCompP11JPXResLevelP11JPXPrecinctP10JPXSubbandjjP12JPXCodeBlock"
  "__ZN9JPXStream18inverseTransform1DEP11JPXTileCompPijj"
  "__ZN9JPXStream21inverseTransformLevelEP11JPXTileCompjP11JPXResLevel"
  "__ZN9JPXStream16inverseTransformEP11JPXTileComp"
  "__ZN9JPXStream21inverseMultiCompAndDCEP7JPXTile"
  "__ZN9JPXStream9readUByteEPj"
  "__ZN9JPXStream8readByteEPi"
  "__ZN9JPXStream9readUWordEPj"
  "__ZN9JPXStream13readMarkerHdrEPiPj"
  "__ZN9JPXStream9readULongEPj"
  "__ZN9JPXStream15getImageParams2EPiP20StreamColorSpaceMode"
  "__ZN9JPXStream16readColorSpecBoxEj"
  "__ZN9JPXStream10readBoxHdrEPjS0_S0_"
  "__ZN9JPXStream14getImageParamsEPiP20StreamColorSpaceMode"
  "__ZN9JPXStream10readNBytesEibPi"
  "__ZN9JPXStream11startBitBufEj"
  "__ZN9JPXStream8readBitsEiPj"
  "__ZN9JPXStream7skipSOPEv"
  "__ZN9JPXStream7skipEPHEv"
  "__ZN9JPXStream16readTilePartDataEjjb"
  "__ZN9JPXStream12readTilePartEv"
  "__ZN9JPXStream14readCodestreamEj"
  "__ZN9JPXStream9readBoxesEv"
  "__ZN9JPXStream5resetEv"
  "__ZN9JPXStream12finishBitBufEv"
  "__ZTS9JPXStream"
  "__ZTI9JPXStream"
  "__ZN9MemStream11setNeedFreeEb"
  "__ZN16AnnotCalloutLineD1Ev"
  "__ZN11AnnotBorder8setWidthEd"
  "__ZNK11AnnotBorder8getWidthEv"
  "__ZNK11AnnotBorder13getDashLengthEv"
  "__ZNK11AnnotBorder7getDashEv"
  "__ZNK11AnnotBorder8getStyleEv"
  "__ZNK16AnnotBorderArray7getTypeEv"
  "__ZNK13AnnotBorderBS7getTypeEv"
  "__ZN21AnnotCalloutMultiLineD1Ev"
  "__ZN16AnnotCalloutLineD0Ev"
  "__ZN21AnnotCalloutMultiLineD0Ev"
  "__ZN13AnnotBorderBSD1Ev"
  "__ZTV11AnnotBorder"
  "__ZN13AnnotBorderBSD0Ev"
  "__ZN16AnnotBorderArrayD1Ev"
  "__ZN16AnnotBorderArrayD0Ev"
  "__ZN5AnnotD2Ev"
  "__ZTV5Annot"
  "__ZN5AnnotD1Ev"
  "__ZN10AnnotPopupD2Ev"
  "__ZTV10AnnotPopup"
  "__ZN10AnnotPopupD1Ev"
  "__ZN10AnnotPopupD0Ev"
  "__ZN11AnnotMarkupD2Ev"
  "__ZTV11AnnotMarkup"
  "__ZN11AnnotMarkupD1Ev"
  "__ZN9AnnotTextD2Ev"
  "__ZTV9AnnotText"
  "__ZN9AnnotTextD1Ev"
  "__ZN9AnnotTextD0Ev"
  "__ZN13AnnotFreeTextD2Ev"
  "__ZTV13AnnotFreeText"
  "__ZN13AnnotFreeTextD1Ev"
  "__ZN13AnnotFreeTextD0Ev"
  "__ZN10AnnotStampD2Ev"
  "__ZTV10AnnotStamp"
  "__ZN10AnnotStampD1Ev"
  "__ZN10AnnotStampD0Ev"
  "__ZN13AnnotGeometryD2Ev"
  "__ZTV13AnnotGeometry"
  "__ZN13AnnotGeometryD1Ev"
  "__ZN13AnnotGeometryD0Ev"
  "__ZN10AnnotCaretD2Ev"
  "__ZTV10AnnotCaret"
  "__ZN10AnnotCaretD1Ev"
  "__ZN10AnnotCaretD0Ev"
  "__ZN19AnnotFileAttachmentD2Ev"
  "__ZTV19AnnotFileAttachment"
  "__ZN19AnnotFileAttachmentD1Ev"
  "__ZN19AnnotFileAttachmentD0Ev"
  "__ZN11AnnotMarkupD0Ev"
  "__ZN7Annot3DD2Ev"
  "__ZTV7Annot3D"
  "__ZN7Annot3DD1Ev"
  "__ZN7Annot3DD0Ev"
  "__ZN5AnnotD0Ev"
  "__ZN9AnnotLineD2Ev"
  "__ZTV9AnnotLine"
  "__ZN9AnnotLineD1Ev"
  "__ZN9AnnotLineD0Ev"
  "__ZN10AnnotMovieD2Ev"
  "__ZTV10AnnotMovie"
  "__ZN10AnnotMovieD1Ev"
  "__ZN10AnnotMovieD0Ev"
  "__ZN10AnnotSoundD2Ev"
  "__ZTV10AnnotSound"
  "__ZN10AnnotSoundD1Ev"
  "__ZN10AnnotSoundD0Ev"
  "__ZN5Annot20getAppearanceResDictEP6Object"
  "__ZNK16AnnotBorderArray13writeToObjectEP4XRefP6Object"
  "__ZNK13AnnotBorderBS13writeToObjectEP4XRefP6Object"
  "__Z25parseAnnotLineEndingStyleP9GooString"
  "__Z27convertAnnotLineEndingStyle20AnnotLineEndingStyle"
  "__Z18parseDiffRectangleP5ArrayP12PDFRectangle"
  "__ZN17AnnotBorderEffectC2EP4Dict"
  "__ZN17AnnotBorderEffectC1EP4Dict"
  "__ZN9AnnotPathC2Ev"
  "__ZN9AnnotPathC1Ev"
  "__ZN9AnnotPathC2EPP10AnnotCoordi"
  "__ZN9AnnotPathC1EPP10AnnotCoordi"
  "__ZN9AnnotPathD2Ev"
  "__ZN9AnnotPathD1Ev"
  "__ZN12AnnotPolygonD2Ev"
  "__ZTV12AnnotPolygon"
  "__ZN12AnnotPolygonD1Ev"
  "__ZN12AnnotPolygonD0Ev"
  "__ZNK9AnnotPath4getXEi"
  "__ZNK9AnnotPath4getYEi"
  "__ZNK9AnnotPath8getCoordEi"
  "__ZN9AnnotPath14parsePathArrayEP5Array"
  "__ZN9AnnotPathC2EP5Array"
  "__ZN9AnnotPathC1EP5Array"
  "__ZN16AnnotCalloutLineC2Edddd"
  "__ZTV16AnnotCalloutLine"
  "__ZN16AnnotCalloutLineC1Edddd"
  "__ZN21AnnotCalloutMultiLineC2Edddddd"
  "__ZTV21AnnotCalloutMultiLine"
  "__ZN21AnnotCalloutMultiLineC1Edddddd"
  "__ZN19AnnotQuadrilateralsC2EP5ArrayP12PDFRectangle"
  "__ZN19AnnotQuadrilateralsC1EP5ArrayP12PDFRectangle"
  "__ZN19AnnotQuadrilateralsC2EPPNS_18AnnotQuadrilateralEi"
  "__ZN19AnnotQuadrilateralsC1EPPNS_18AnnotQuadrilateralEi"
  "__ZN19AnnotQuadrilateralsD2Ev"
  "__ZN19AnnotQuadrilateralsD1Ev"
  "__ZN15AnnotTextMarkupD2Ev"
  "__ZTV15AnnotTextMarkup"
  "__ZN15AnnotTextMarkupD1Ev"
  "__ZN15AnnotTextMarkupD0Ev"
  "__ZN9AnnotLinkD2Ev"
  "__ZTV9AnnotLink"
  "__ZN9AnnotLinkD1Ev"
  "__ZN9AnnotLinkD0Ev"
  "__ZN19AnnotQuadrilaterals5getX1Ei"
  "__ZN19AnnotQuadrilaterals5getY1Ei"
  "__ZN19AnnotQuadrilaterals5getX2Ei"
  "__ZN19AnnotQuadrilaterals5getY2Ei"
  "__ZN19AnnotQuadrilaterals5getX3Ei"
  "__ZN19AnnotQuadrilaterals5getY3Ei"
  "__ZN19AnnotQuadrilaterals5getX4Ei"
  "__ZN19AnnotQuadrilaterals5getY4Ei"
  "__ZN19AnnotQuadrilaterals18AnnotQuadrilateralC2Edddddddd"
  "__ZN19AnnotQuadrilaterals18AnnotQuadrilateralC1Edddddddd"
  "__ZN11AnnotBorderC2Ev"
  "__ZN11AnnotBorderC1Ev"
  "__ZN11AnnotBorder14parseDashArrayEP6Object"
  "__ZN11AnnotBorderD2Ev"
  "__ZN11AnnotBorderD1Ev"
  "__ZN11AnnotBorderD0Ev"
  "__ZN16AnnotBorderArrayC2Ev"
  "__ZTV16AnnotBorderArray"
  "__ZN16AnnotBorderArrayC1Ev"
  "__ZN16AnnotBorderArrayC2EP5Array"
  "__ZN16AnnotBorderArrayC1EP5Array"
  "__ZN13AnnotBorderBSC2Ev"
  "__ZTV13AnnotBorderBS"
  "__ZN13AnnotBorderBSC1Ev"
  "__ZN13AnnotBorderBSC2EP4Dict"
  "__ZN13AnnotBorderBSC1EP4Dict"
  "__ZNK13AnnotBorderBS12getStyleNameEv"
  "__ZN10AnnotColorC2Ev"
  "__ZN10AnnotColorC1Ev"
  "__ZN10AnnotColorC2Ed"
  "__ZN10AnnotColorC1Ed"
  "__ZN10AnnotColorC2Eddd"
  "__ZN10AnnotColorC1Eddd"
  "__ZN10AnnotColorC2Edddd"
  "__ZN10AnnotColorC1Edddd"
  "__ZN10AnnotColor11adjustColorEi"
  "__ZN10AnnotColorC2EP5Arrayi"
  "__ZN10AnnotColorC1EP5Arrayi"
  "__ZNK10AnnotColor13writeToObjectEP4XRefP6Object"
  "__ZN12AnnotIconFitC2EP4Dict"
  "__ZN12AnnotIconFitC1EP4Dict"
  "__ZN15AnnotAppearanceC2EP6PDFDocP6Object"
  "__ZN15AnnotAppearanceC1EP6PDFDocP6Object"
  "__ZN15AnnotAppearanceD2Ev"
  "__ZN15AnnotAppearanceD1Ev"
  "__ZN15AnnotAppearance19getAppearanceStreamENS_19AnnotAppearanceTypeEPKcP6Object"
  "__ZN15AnnotAppearance11getStateKeyEi"
  "__ZN15AnnotAppearance12getNumStatesEv"
  "__ZN15AnnotAppearance16referencesStreamEP6Object3Ref"
  "__ZN15AnnotAppearance16referencesStreamE3Ref"
  "__ZN15AnnotAppearance12removeStreamE3Ref"
  "__ZN15AnnotAppearance18removeStateStreamsEP6Object"
  "__ZN15AnnotAppearance16removeAllStreamsEv"
  "__ZN22AnnotAppearanceCharacsC2EP4Dict"
  "__ZN22AnnotAppearanceCharacsC1EP4Dict"
  "__ZN22AnnotAppearanceCharacsD2Ev"
  "__ZN22AnnotAppearanceCharacsD1Ev"
  "__ZN11AnnotScreenD2Ev"
  "__ZTV11AnnotScreen"
  "__ZN11AnnotScreenD1Ev"
  "__ZN11AnnotScreenD0Ev"
  "__ZN11AnnotWidgetD2Ev"
  "__ZTV11AnnotWidget"
  "__ZN11AnnotWidgetD1Ev"
  "__ZN11AnnotWidgetD0Ev"
  "__ZN19AnnotAppearanceBBoxC2EP12PDFRectangle"
  "__ZN19AnnotAppearanceBBoxC1EP12PDFRectangle"
  "__ZN19AnnotAppearanceBBox8extendToEdd"
  "__ZNK19AnnotAppearanceBBox11getBBoxRectEPd"
  "__ZNK19AnnotAppearanceBBox11getPageXMinEv"
  "__ZNK19AnnotAppearanceBBox11getPageYMinEv"
  "__ZNK19AnnotAppearanceBBox11getPageXMaxEv"
  "__ZNK19AnnotAppearanceBBox11getPageYMaxEv"
  "__ZN5Annot10initializeEP6PDFDocP4Dict"
  "__ZN5AnnotC2EP6PDFDocP12PDFRectangle"
  "__ZN5AnnotC1EP6PDFDocP12PDFRectangle"
  "__ZN5AnnotC2EP6PDFDocP4Dict"
  "__ZN5AnnotC1EP6PDFDocP4Dict"
  "__ZN5AnnotC2EP6PDFDocP4DictP6Object"
  "__ZN5AnnotC1EP6PDFDocP4DictP6Object"
  "__ZNK5Annot7getRectEPdS0_S0_S0_"
  "__ZNK5Annot6inRectEdd"
  "__ZN5Annot6updateEPKcP6Object"
  "__ZN5Annot11setContentsEP9GooString"
  "__ZN5Annot7setNameEP9GooString"
  "__ZN5Annot11setModifiedEP9GooString"
  "__ZN5Annot8setFlagsEj"
  "__ZN5Annot7setPageEib"
  "__ZN5Annot18setAppearanceStateEPKc"
  "__ZN5Annot20invalidateAppearanceEv"
  "__ZN5Annot7setRectEdddd"
  "__ZN5Annot7setRectEP12PDFRectangle"
  "__ZN5Annot9setBorderEP11AnnotBorder"
  "__ZN5Annot8setColorEP10AnnotColor"
  "__ZN5Annot23removeReferencedObjectsEv"
  "__ZN11AnnotMarkup23removeReferencedObjectsEv"
  "__ZN13AnnotFreeText11setContentsEP9GooString"
  "__ZN9AnnotLine11setContentsEP9GooString"
  "__ZN5Annot7getXMinEv"
  "__ZN5Annot7getYMinEv"
  "__ZN5Annot7getXMaxEv"
  "__ZN5Annot7getYMaxEv"
  "__ZN5Annot12readArrayNumEP6ObjectiPd"
  "__ZN5Annot9incRefCntEv"
  "__ZN5Annot9decRefCntEv"
  "__ZN5Annot8setColorEP10AnnotColorb"
  "__ZN5Annot21setLineStyleForBorderEP11AnnotBorder"
  "__ZN5Annot10drawCircleEdddb"
  "__ZN5Annot17drawCircleTopLeftEddd"
  "__ZN5Annot21drawCircleBottomRightEddd"
  "__ZN5Annot10createFormEPdbP6ObjectS2_"
  "__ZN5Annot19createResourcesDictEPKcP6ObjectS1_dS1_S3_"
  "__ZN5Annot9isVisibleEb"
  "__ZNK5Annot11getRotationEv"
  "__ZN5Annot4drawEP3Gfxb"
  "__ZN9AnnotText4drawEP3Gfxb"
  "__ZN9AnnotLink4drawEP3Gfxb"
  "__ZN15AnnotTextMarkup4drawEP3Gfxb"
  "__ZN10AnnotMovie4drawEP3Gfxb"
  "__ZN13AnnotGeometry4drawEP3Gfxb"
  "__ZN19AnnotFileAttachment4drawEP3Gfxb"
  "__ZN10AnnotSound4drawEP3Gfxb"
  "__ZN12AnnotPolygon4drawEP3Gfxb"
  "__ZN8AnnotInk4drawEP3Gfxb"
  "__ZN10AnnotPopup10initializeEP6PDFDocP4Dict"
  "__ZN10AnnotPopupC2EP6PDFDocP12PDFRectangle"
  "__ZN10AnnotPopupC1EP6PDFDocP12PDFRectangle"
  "__ZN10AnnotPopupC2EP6PDFDocP4DictP6Object"
  "__ZN10AnnotPopupC1EP6PDFDocP4DictP6Object"
  "__ZN10AnnotPopup9setParentEP6Object"
  "__ZN10AnnotPopup9setParentEP5Annot"
  "__ZN10AnnotPopup7setOpenEb"
  "__ZN11AnnotMarkup10initializeEP6PDFDocP4DictP6Object"
  "__ZN11AnnotMarkupC2EP6PDFDocP12PDFRectangle"
  "__ZN11AnnotMarkupC1EP6PDFDocP12PDFRectangle"
  "__ZN11AnnotMarkupC2EP6PDFDocP4DictP6Object"
  "__ZN11AnnotMarkupC1EP6PDFDocP4DictP6Object"
  "__ZN11AnnotMarkup8setLabelEP9GooString"
  "__ZN11AnnotMarkup8setPopupEP10AnnotPopup"
  "__ZN11AnnotMarkup10setOpacityEd"
  "__ZN11AnnotMarkup7setDateEP9GooString"
  "__ZN9AnnotText10initializeEP6PDFDocP4Dict"
  "__ZN9AnnotTextC2EP6PDFDocP12PDFRectangle"
  "__ZN9AnnotTextC1EP6PDFDocP12PDFRectangle"
  "__ZN9AnnotTextC2EP6PDFDocP4DictP6Object"
  "__ZN9AnnotTextC1EP6PDFDocP4DictP6Object"
  "__ZN9AnnotText7setOpenEb"
  "__ZN9AnnotText7setIconEP9GooString"
  "__ZN9AnnotLink10initializeEP6PDFDocP4Dict"
  "__ZN9AnnotLinkC2EP6PDFDocP12PDFRectangle"
  "__ZN9AnnotLinkC1EP6PDFDocP12PDFRectangle"
  "__ZN9AnnotLinkC2EP6PDFDocP4DictP6Object"
  "__ZN9AnnotLinkC1EP6PDFDocP4DictP6Object"
  "__ZN13AnnotFreeText10initializeEP6PDFDocP4Dict"
  "__ZN13AnnotFreeTextC2EP6PDFDocP12PDFRectangleP9GooString"
  "__ZN13AnnotFreeTextC1EP6PDFDocP12PDFRectangleP9GooString"
  "__ZN13AnnotFreeTextC2EP6PDFDocP4DictP6Object"
  "__ZN13AnnotFreeTextC1EP6PDFDocP4DictP6Object"
  "__ZN13AnnotFreeText19setAppearanceStringEP9GooString"
  "__ZN13AnnotFreeText11setQuaddingENS_21AnnotFreeTextQuaddingE"
  "__ZN13AnnotFreeText14setStyleStringEP9GooString"
  "__ZN13AnnotFreeText14setCalloutLineEP16AnnotCalloutLine"
  "__ZTI21AnnotCalloutMultiLine"
  "__ZTI16AnnotCalloutLine"
  "__ZN13AnnotFreeText9setIntentENS_19AnnotFreeTextIntentE"
  "__ZN13AnnotFreeText21parseAppearanceStringEP9GooStringRdRP10AnnotColor"
  "__ZN9AnnotLine10initializeEP6PDFDocP4Dict"
  "__ZN9AnnotLineC2EP6PDFDocP12PDFRectangle"
  "__ZN9AnnotLineC1EP6PDFDocP12PDFRectangle"
  "__ZN9AnnotLineC2EP6PDFDocP4DictP6Object"
  "__ZN9AnnotLineC1EP6PDFDocP4DictP6Object"
  "__ZN9AnnotLine11setVerticesEdddd"
  "__ZN9AnnotLine16setStartEndStyleE20AnnotLineEndingStyleS0_"
  "__ZN9AnnotLine16setInteriorColorEP10AnnotColor"
  "__ZN9AnnotLine19setLeaderLineLengthEd"
  "__ZN9AnnotLine22setLeaderLineExtensionEd"
  "__ZN9AnnotLine10setCaptionEb"
  "__ZN9AnnotLine9setIntentENS_15AnnotLineIntentE"
  "__ZN15AnnotTextMarkup10initializeEP6PDFDocP4Dict"
  "__ZN15AnnotTextMarkupC2EP6PDFDocP12PDFRectangleN5Annot12AnnotSubtypeE"
  "__ZN15AnnotTextMarkupC1EP6PDFDocP12PDFRectangleN5Annot12AnnotSubtypeE"
  "__ZN15AnnotTextMarkupC2EP6PDFDocP4DictP6Object"
  "__ZN15AnnotTextMarkupC1EP6PDFDocP4DictP6Object"
  "__ZN15AnnotTextMarkup7setTypeEN5Annot12AnnotSubtypeE"
  "__ZN15AnnotTextMarkup17setQuadrilateralsEP19AnnotQuadrilaterals"
  "__ZN11AnnotWidget10initializeEP6PDFDocP4Dict"
  "__ZN11AnnotWidgetC2EP6PDFDocP4DictP6Object"
  "__ZN11AnnotWidgetC1EP6PDFDocP4DictP6Object"
  "__ZN11AnnotWidgetC2EP6PDFDocP4DictP6ObjectP9FormField"
  "__ZN11AnnotWidgetC1EP6PDFDocP4DictP6ObjectP9FormField"
  "__ZN11AnnotWidget19getAdditionalActionEN5Annot21AdditionalActionsTypeE"
  "__ZN11AnnotWidget23getFormAdditionalActionEN5Annot25FormAdditionalActionsTypeE"
  "__ZN5Annot10layoutTextEP9GooStringS1_PiP7GfxFontPddS2_b"
  "__ZN5Annot11writeStringEP9GooStringS1_"
  "__ZN13AnnotFreeText26generateFreeTextAppearanceEv"
  "__ZN13AnnotFreeText4drawEP3Gfxb"
  "__ZN13AnnotFreeText20getAppearanceResDictEP6Object"
  "__ZN9AnnotLine22generateLineAppearanceEv"
  "__ZN9AnnotLine4drawEP3Gfxb"
  "__ZN9AnnotLine20getAppearanceResDictEP6Object"
  "__ZN11AnnotWidget8drawTextEP9GooStringS1_P12GfxResourcesbiibbb"
  "__ZN11AnnotWidget11drawListBoxEP15FormFieldChoiceP9GooStringP12GfxResourcesi"
  "__ZN11AnnotWidget10drawBorderEv"
  "__ZN11AnnotWidget19drawFormFieldButtonEP12GfxResourcesP9GooString"
  "__ZN11AnnotWidget17drawFormFieldTextEP12GfxResourcesP9GooString"
  "__ZN11AnnotWidget19drawFormFieldChoiceEP12GfxResourcesP9GooString"
  "__ZN11AnnotWidget23generateFieldAppearanceEv"
  "__ZN11AnnotWidget4drawEP3Gfxb"
  "__ZN11AnnotWidget22updateAppearanceStreamEv"
  "__ZN10AnnotMovie10initializeEP6PDFDocP4Dict"
  "__ZN10AnnotMovieC2EP6PDFDocP12PDFRectangleP5Movie"
  "__ZN10AnnotMovieC1EP6PDFDocP12PDFRectangleP5Movie"
  "__ZN10AnnotMovieC2EP6PDFDocP4DictP6Object"
  "__ZN10AnnotMovieC1EP6PDFDocP4DictP6Object"
  "__ZN11AnnotScreen10initializeEP6PDFDocP4Dict"
  "__ZN11AnnotScreenC2EP6PDFDocP12PDFRectangle"
  "__ZN11AnnotScreenC1EP6PDFDocP12PDFRectangle"
  "__ZN11AnnotScreenC2EP6PDFDocP4DictP6Object"
  "__ZN11AnnotScreenC1EP6PDFDocP4DictP6Object"
  "__ZN11AnnotScreen19getAdditionalActionEN5Annot21AdditionalActionsTypeE"
  "__ZN10AnnotStamp10initializeEP6PDFDocP4Dict"
  "__ZN10AnnotStampC2EP6PDFDocP12PDFRectangle"
  "__ZN10AnnotStampC1EP6PDFDocP12PDFRectangle"
  "__ZN10AnnotStampC2EP6PDFDocP4DictP6Object"
  "__ZN10AnnotStampC1EP6PDFDocP4DictP6Object"
  "__ZN10AnnotStamp7setIconEP9GooString"
  "__ZN13AnnotGeometry10initializeEP6PDFDocP4Dict"
  "__ZN13AnnotGeometryC2EP6PDFDocP12PDFRectangleN5Annot12AnnotSubtypeE"
  "__ZN13AnnotGeometryC1EP6PDFDocP12PDFRectangleN5Annot12AnnotSubtypeE"
  "__ZN13AnnotGeometryC2EP6PDFDocP4DictP6Object"
  "__ZN13AnnotGeometryC1EP6PDFDocP4DictP6Object"
  "__ZN13AnnotGeometry7setTypeEN5Annot12AnnotSubtypeE"
  "__ZN13AnnotGeometry16setInteriorColorEP10AnnotColor"
  "__ZN12AnnotPolygon10initializeEP6PDFDocP4Dict"
  "__ZN12AnnotPolygonC2EP6PDFDocP12PDFRectangleN5Annot12AnnotSubtypeE"
  "__ZN12AnnotPolygonC1EP6PDFDocP12PDFRectangleN5Annot12AnnotSubtypeE"
  "__ZN12AnnotPolygonC2EP6PDFDocP4DictP6Object"
  "__ZN12AnnotPolygonC1EP6PDFDocP4DictP6Object"
  "__ZN12AnnotPolygon7setTypeEN5Annot12AnnotSubtypeE"
  "__ZN12AnnotPolygon11setVerticesEP9AnnotPath"
  "__ZN12AnnotPolygon16setStartEndStyleE20AnnotLineEndingStyleS0_"
  "__ZN12AnnotPolygon16setInteriorColorEP10AnnotColor"
  "__ZN12AnnotPolygon9setIntentENS_18AnnotPolygonIntentE"
  "__ZN10AnnotCaret10initializeEP6PDFDocP4Dict"
  "__ZN10AnnotCaretC2EP6PDFDocP12PDFRectangle"
  "__ZN10AnnotCaretC1EP6PDFDocP12PDFRectangle"
  "__ZN10AnnotCaretC2EP6PDFDocP4DictP6Object"
  "__ZN10AnnotCaretC1EP6PDFDocP4DictP6Object"
  "__ZN10AnnotCaret9setSymbolENS_16AnnotCaretSymbolE"
  "__ZN8AnnotInk12writeInkListEPP9AnnotPathiP5Array"
  "__ZN8AnnotInk12parseInkListEP5Array"
  "__ZN8AnnotInk10initializeEP6PDFDocP4Dict"
  "__ZN8AnnotInkC2EP6PDFDocP12PDFRectangle"
  "__ZTV8AnnotInk"
  "__ZN8AnnotInkC1EP6PDFDocP12PDFRectangle"
  "__ZN8AnnotInkC2EP6PDFDocP4DictP6Object"
  "__ZN8AnnotInkC1EP6PDFDocP4DictP6Object"
  "__ZN8AnnotInk11freeInkListEv"
  "__ZN8AnnotInkD2Ev"
  "__ZN8AnnotInkD1Ev"
  "__ZN8AnnotInkD0Ev"
  "__ZN8AnnotInk10setInkListEPP9AnnotPathi"
  "__ZN19AnnotFileAttachment10initializeEP6PDFDocP4Dict"
  "__ZN19AnnotFileAttachmentC2EP6PDFDocP12PDFRectangleP9GooString"
  "__ZN19AnnotFileAttachmentC1EP6PDFDocP12PDFRectangleP9GooString"
  "__ZN19AnnotFileAttachmentC2EP6PDFDocP4DictP6Object"
  "__ZN19AnnotFileAttachmentC1EP6PDFDocP4DictP6Object"
  "__ZN10AnnotSound10initializeEP6PDFDocP4Dict"
  "__ZN10AnnotSoundC2EP6PDFDocP12PDFRectangleP5Sound"
  "__ZN10AnnotSoundC1EP6PDFDocP12PDFRectangleP5Sound"
  "__ZN10AnnotSoundC2EP6PDFDocP4DictP6Object"
  "__ZN10AnnotSoundC1EP6PDFDocP4DictP6Object"
  "__ZN7Annot3D10ActivationC2EP4Dict"
  "__ZN7Annot3D10ActivationC1EP4Dict"
  "__ZN7Annot3D10initializeEP6PDFDocP4Dict"
  "__ZN7Annot3DC2EP6PDFDocP12PDFRectangle"
  "__ZN7Annot3DC1EP6PDFDocP12PDFRectangle"
  "__ZN7Annot3DC2EP6PDFDocP4DictP6Object"
  "__ZN7Annot3DC1EP6PDFDocP4DictP6Object"
  "__ZNK14AnnotRichMedia10getContentEv"
  "__ZNK14AnnotRichMedia11getSettingsEv"
  "__ZN14AnnotRichMedia8SettingsD2Ev"
  "__ZN14AnnotRichMedia8SettingsD1Ev"
  "__ZNK14AnnotRichMedia8Settings13getActivationEv"
  "__ZNK14AnnotRichMedia8Settings15getDeactivationEv"
  "__ZN14AnnotRichMedia10ActivationC2EP4Dict"
  "__ZN14AnnotRichMedia10ActivationC1EP4Dict"
  "__ZNK14AnnotRichMedia10Activation12getConditionEv"
  "__ZN14AnnotRichMedia12DeactivationC2EP4Dict"
  "__ZN14AnnotRichMedia12DeactivationC1EP4Dict"
  "__ZN14AnnotRichMedia8SettingsC2EP4Dict"
  "__ZN14AnnotRichMedia8SettingsC1EP4Dict"
  "__ZNK14AnnotRichMedia12Deactivation12getConditionEv"
  "__ZNK14AnnotRichMedia7Content22getConfigurationsCountEv"
  "__ZNK14AnnotRichMedia7Content16getConfigurationEi"
  "__ZNK14AnnotRichMedia7Content14getAssetsCountEv"
  "__ZNK14AnnotRichMedia7Content8getAssetEi"
  "__ZN14AnnotRichMedia5AssetC2Ev"
  "__ZN14AnnotRichMedia5AssetC1Ev"
  "__ZN14AnnotRichMedia5AssetD2Ev"
  "__ZN14AnnotRichMedia5AssetD1Ev"
  "__ZNK14AnnotRichMedia5Asset7getNameEv"
  "__ZNK14AnnotRichMedia5Asset11getFileSpecEv"
  "__ZNK14AnnotRichMedia13Configuration17getInstancesCountEv"
  "__ZNK14AnnotRichMedia13Configuration11getInstanceEi"
  "__ZNK14AnnotRichMedia13Configuration7getNameEv"
  "__ZNK14AnnotRichMedia13Configuration7getTypeEv"
  "__ZNK14AnnotRichMedia8Instance7getTypeEv"
  "__ZNK14AnnotRichMedia8Instance9getParamsEv"
  "__ZN14AnnotRichMedia6ParamsC2EP4Dict"
  "__ZN14AnnotRichMedia6ParamsC1EP4Dict"
  "__ZN14AnnotRichMedia8InstanceC2EP4Dict"
  "__ZN14AnnotRichMedia8InstanceC1EP4Dict"
  "__ZN14AnnotRichMedia13ConfigurationC2EP4Dict"
  "__ZN14AnnotRichMedia13ConfigurationC1EP4Dict"
  "__ZN14AnnotRichMedia7ContentC2EP4Dict"
  "__ZN14AnnotRichMedia7ContentC1EP4Dict"
  "__ZN14AnnotRichMedia10initializeEP6PDFDocP4Dict"
  "__ZN14AnnotRichMediaC2EP6PDFDocP12PDFRectangle"
  "__ZTV14AnnotRichMedia"
  "__ZN14AnnotRichMediaC1EP6PDFDocP12PDFRectangle"
  "__ZN14AnnotRichMediaC2EP6PDFDocP4DictP6Object"
  "__ZN14AnnotRichMediaC1EP6PDFDocP4DictP6Object"
  "__ZN14AnnotRichMedia6ParamsD2Ev"
  "__ZN14AnnotRichMedia6ParamsD1Ev"
  "__ZN14AnnotRichMedia8InstanceD2Ev"
  "__ZN14AnnotRichMedia8InstanceD1Ev"
  "__ZN14AnnotRichMedia13ConfigurationD2Ev"
  "__ZN14AnnotRichMedia13ConfigurationD1Ev"
  "__ZN14AnnotRichMedia7ContentD2Ev"
  "__ZN14AnnotRichMedia7ContentD1Ev"
  "__ZN14AnnotRichMediaD2Ev"
  "__ZN14AnnotRichMediaD1Ev"
  "__ZN14AnnotRichMediaD0Ev"
  "__ZNK14AnnotRichMedia6Params12getFlashVarsEv"
  "__ZN6Annots11appendAnnotEP5Annot"
  "__ZN6Annots11removeAnnotEP5Annot"
  "__ZN6Annots11createAnnotEP4DictP6Object"
  "__ZN6AnnotsC2EP6PDFDociP6Object"
  "__ZN6AnnotsC1EP6PDFDociP6Object"
  "__ZN6Annots9findAnnotEP3Ref"
  "__ZN6AnnotsD2Ev"
  "__ZN6AnnotsD1Ev"
  "__ZTS16AnnotCalloutLine"
  "__ZTS21AnnotCalloutMultiLine"
  "__ZTS11AnnotBorder"
  "__ZTI11AnnotBorder"
  "__ZTS16AnnotBorderArray"
  "__ZTI16AnnotBorderArray"
  "__ZTS13AnnotBorderBS"
  "__ZTI13AnnotBorderBS"
  "__ZTS5Annot"
  "__ZTI5Annot"
  "__ZTS10AnnotPopup"
  "__ZTI10AnnotPopup"
  "__ZTS11AnnotMarkup"
  "__ZTI11AnnotMarkup"
  "__ZTS9AnnotText"
  "__ZTI9AnnotText"
  "__ZTS10AnnotMovie"
  "__ZTI10AnnotMovie"
  "__ZTS11AnnotScreen"
  "__ZTI11AnnotScreen"
  "__ZTS9AnnotLink"
  "__ZTI9AnnotLink"
  "__ZTS13AnnotFreeText"
  "__ZTI13AnnotFreeText"
  "__ZTS9AnnotLine"
  "__ZTI9AnnotLine"
  "__ZTS15AnnotTextMarkup"
  "__ZTI15AnnotTextMarkup"
  "__ZTS10AnnotStamp"
  "__ZTI10AnnotStamp"
  "__ZTS13AnnotGeometry"
  "__ZTI13AnnotGeometry"
  "__ZTS12AnnotPolygon"
  "__ZTI12AnnotPolygon"
  "__ZTS10AnnotCaret"
  "__ZTI10AnnotCaret"
  "__ZTS8AnnotInk"
  "__ZTI8AnnotInk"
  "__ZTS19AnnotFileAttachment"
  "__ZTI19AnnotFileAttachment"
  "__ZTS10AnnotSound"
  "__ZTI10AnnotSound"
  "__ZTS11AnnotWidget"
  "__ZTI11AnnotWidget"
  "__ZTS7Annot3D"
  "__ZTI7Annot3D"
  "__ZTS14AnnotRichMedia"
  "__ZTI14AnnotRichMedia"
  "__ZN5ArrayC2EP4XRef"
  "__ZN5ArrayC1EP4XRef"
  "__ZN5ArrayD2Ev"
  "__ZN5ArrayD1Ev"
  "__ZN5Array6incRefEv"
  "__ZN5Array6decRefEv"
  "__ZN5Array3addEP6Object"
  "__ZN5Array4copyEP4XRefP6Object"
  "__ZN5Array6removeEi"
  "__ZN5Array3getEiP6Objecti"
  "__ZN5Array5getNFEiP6Object"
  "__ZN5Array9getStringEiP9GooString"
  "__ZN17BuiltinFontWidthsC2EP16BuiltinFontWidthi"
  "__ZN17BuiltinFontWidthsC1EP16BuiltinFontWidthi"
  "__ZN17BuiltinFontWidthsD2Ev"
  "__ZN17BuiltinFontWidthsD1Ev"
  "__ZN17BuiltinFontWidths8getWidthEPKcPt"
  "__ZN17BuiltinFontWidths4hashEPKc"
  "__Z21initBuiltinFontTablesv"
  "__Z21freeBuiltinFontTablesv"
  "__ZN10CachedFileD2Ev"
  "__ZN10CachedFileD1Ev"
  "__ZN10CachedFile9incRefCntEv"
  "__ZN10CachedFile9decRefCntEv"
  "__ZN10CachedFile4tellEv"
  "__ZN10CachedFile4seekEli"
  "__ZN16CachedFileWriterC2EP10CachedFilePSt6vectorIiSaIiEE"
  "__ZN16CachedFileWriterC1EP10CachedFilePSt6vectorIiSaIiEE"
  "__ZN16CachedFileWriterD2Ev"
  "__ZN16CachedFileWriterD1Ev"
  "__ZNSt6vectorI10_ByteRangeSaIS0_EE13_M_insert_auxEN9__gnu_cxx17__normal_iteratorIPS0_S2_EERKS0_"
  "__ZNSt6vectorIiSaIiEE13_M_insert_auxEN9__gnu_cxx17__normal_iteratorIPiS1_EERKi"
  "__ZN10CachedFile5cacheERKSt6vectorI10_ByteRangeSaIS1_EE"
  "__ZN10CachedFile5cacheEjj"
  "__ZN10CachedFile4readEPvjj"
  "__ZNSt6vectorIN10CachedFile5ChunkESaIS1_EE14_M_fill_insertEN9__gnu_cxx17__normal_iteratorIPS1_S3_EEjRKS1_"
  "__ZN16CachedFileWriter5writeEPKcj"
  "__ZN10CachedFileC2EP16CachedFileLoaderP9GooString"
  "__ZN10CachedFileC1EP16CachedFileLoaderP9GooString"
  "__ZN8NameTree5Entry8cmpEntryEPKvS2_"
  "__ZN8NameTree5Entry3cmpEPKvS2_"
  "__ZN6Stream13fillGooStringEP9GooString"
  "__ZN7CatalogC2EP6PDFDoc"
  "__ZN7CatalogC1EP6PDFDoc"
  "__ZN7Catalog12readMetadataEv"
  "__ZN7Catalog11getPageModeEv"
  "__ZN7Catalog13getPageLayoutEv"
  "__ZN8NameTreeC2Ev"
  "__ZN8NameTreeC1Ev"
  "__ZN8NameTreeD2Ev"
  "__ZN8NameTreeD1Ev"
  "__ZN7CatalogD2Ev"
  "__ZN7CatalogD1Ev"
  "__ZN8NameTree5EntryC2EP5Arrayi"
  "__ZN8NameTree5EntryC1EP5Arrayi"
  "__ZN8NameTree5EntryD2Ev"
  "__ZN8NameTree5EntryD1Ev"
  "__ZN8NameTree8addEntryEPNS_5EntryE"
  "__ZN8NameTree5parseEP6Object"
  "__ZN8NameTree4initEP4XRefP6Object"
  "__ZN8NameTree6lookupEP9GooStringP6Object"
  "__ZN8NameTree8getValueEi"
  "__ZN8NameTree7getNameEi"
  "__ZN7Catalog11getNumPagesEv"
  "__ZN7Catalog16getPageLabelInfoEv"
  "__ZN7Catalog12labelToIndexEP9GooStringPi"
  "__ZN7Catalog12indexToLabelEiP9GooString"
  "__ZN7Catalog17getStructTreeRootEv"
  "__ZN7Catalog11getMarkInfoEv"
  "__ZN7Catalog10getOutlineEv"
  "__ZN7Catalog8getDestsEv"
  "__ZN7Catalog11getFormTypeEv"
  "__ZN7Catalog7getFormEv"
  "__ZN7Catalog20getViewerPreferencesEv"
  "__ZN7Catalog8getNamesEv"
  "__ZN7Catalog15getDestNameTreeEv"
  "__ZN7Catalog8findDestEP9GooString"
  "__ZN7Catalog23getEmbeddedFileNameTreeEv"
  "__ZN7Catalog12embeddedFileEi"
  "__ZN7Catalog13getJSNameTreeEv"
  "__ZN7Catalog5getJSEi"
  "__ZN7Catalog19getAdditionalActionENS_29DocumentAdditionalActionsTypeE"
  "__ZNSt6vectorIP4DictSaIS1_EE13_M_insert_auxEN9__gnu_cxx17__normal_iteratorIPS1_S3_EERKS1_"
  "__ZNSt6vectorI3RefSaIS0_EE13_M_insert_auxEN9__gnu_cxx17__normal_iteratorIPS0_S2_EERKS0_"
  "__ZNSt6vectorIP9PageAttrsSaIS1_EE13_M_insert_auxEN9__gnu_cxx17__normal_iteratorIPS1_S3_EERKS1_"
  "__ZN7Catalog13cachePageTreeEi"
  "__ZN7Catalog7getPageEi"
  "__ZN7Catalog10getPageRefEi"
  "__ZN7Catalog8findPageEii"
  "__ZN17CharCodeToUnicode19makeIdentityMappingEv"
  "__ZN17CharCodeToUnicode10parseCMap1EPFiPvES0_i"
  "__ZN17CharCodeToUnicode9mergeCMapEP9GooStringi"
  "__ZN17CharCodeToUnicode10addMappingEjPcii"
  "__ZN17CharCodeToUnicodeC2Ev"
  "__ZN17CharCodeToUnicodeC1Ev"
  "__ZN17CharCodeToUnicodeC2EP9GooString"
  "__ZN17CharCodeToUnicodeC1EP9GooString"
  "__ZN17CharCodeToUnicode17parseCMapFromFileEP9GooStringi"
  "__ZN17CharCodeToUnicode9parseCMapEP9GooStringi"
  "__ZN17CharCodeToUnicodeC2EP9GooStringPjjbP23CharCodeToUnicodeStringii"
  "__ZN17CharCodeToUnicodeC1EP9GooStringPjjbP23CharCodeToUnicodeStringii"
  "__ZN17CharCodeToUnicode17make8BitToUnicodeEPj"
  "__ZN17CharCodeToUnicode21parseUnicodeToUnicodeEP9GooString"
  "__ZN17CharCodeToUnicode17parseCIDToUnicodeEP9GooStringS1_"
  "__ZN17CharCodeToUnicodeD2Ev"
  "__ZN17CharCodeToUnicodeD1Ev"
  "__ZN17CharCodeToUnicode9incRefCntEv"
  "__ZN17CharCodeToUnicode9decRefCntEv"
  "__ZN17CharCodeToUnicode5matchEP9GooString"
  "__ZN17CharCodeToUnicode10setMappingEjPji"
  "__ZN17CharCodeToUnicode12mapToUnicodeEjPPj"
  "__ZN17CharCodeToUnicode13mapToCharCodeEPjS0_i"
  "__ZN22CharCodeToUnicodeCacheC2Ei"
  "__ZN22CharCodeToUnicodeCacheC1Ei"
  "__ZN22CharCodeToUnicodeCacheD2Ev"
  "__ZN22CharCodeToUnicodeCacheD1Ev"
  "__ZN22CharCodeToUnicodeCache20getCharCodeToUnicodeEP9GooString"
  "__ZN22CharCodeToUnicodeCache3addEP17CharCodeToUnicode"
  "__ZN4CMapC2EP9GooStringS1_"
  "__ZN4CMapC1EP9GooStringS1_"
  "__ZN4CMapC2EP9GooStringS1_i"
  "__ZN4CMapC1EP9GooStringS1_i"
  "__ZN4CMap10copyVectorEP15CMapVectorEntryS1_"
  "__ZN4CMap7addCIDsEjjjj"
  "__ZN4CMap14freeCMapVectorEP15CMapVectorEntry"
  "__ZN4CMapD2Ev"
  "__ZN4CMapD1Ev"
  "__ZN4CMap9incRefCntEv"
  "__ZN4CMap9decRefCntEv"
  "__ZN4CMap5matchEP9GooStringS1_"
  "__ZN4CMap6getCIDEPciPjPi"
  "__ZN4CMap19setReverseMapVectorEjP15CMapVectorEntryPjjj"
  "__ZN4CMap13setReverseMapEPjjj"
  "__ZN9CMapCacheC2Ev"
  "__ZN9CMapCacheC1Ev"
  "__ZN9CMapCacheD2Ev"
  "__ZN9CMapCacheD1Ev"
  "__ZN9CMapCache7getCMapEP9GooStringS1_P6Stream"
  "__ZN4CMap5parseEP9CMapCacheP9GooStringS3_P6Stream"
  "__ZN4CMap7useCMapEP9CMapCachePc"
  "__ZN4CMap6parse2EP9CMapCachePFiPvES2_"
  "__ZN4CMap5parseEP9CMapCacheP9GooStringS3_"
  "__ZN4CMap5parseEP9CMapCacheP9GooStringP6Stream"
  "__ZN4CMap7useCMapEP9CMapCacheP6Object"
  "__ZN4CMap5parseEP9CMapCacheP9GooStringP6Object"
  "__Z15parseDateStringPKcPiS1_S1_S1_S1_S1_PcS1_S1_"
  "__Z16timeToDateStringPi"
  "__Z16dateStringToTimeP9GooString"
  "__ZN15BaseCryptStream7getKindEv"
  "__ZN15BaseCryptStream18getUndecodedStreamEv"
  "__ZN15BaseCryptStream5resetEv"
  "__ZN15BaseCryptStream6getPosEv"
  "__ZN15BaseCryptStream7getCharEv"
  "__ZN15BaseCryptStream8isBinaryEb"
  "__ZN13EncryptStream5resetEv"
  "__ZN13DecryptStream5resetEv"
  "__ZN13DecryptStream8lookCharEv"
  "__ZN13EncryptStream8lookCharEv"
  "__ZN15BaseCryptStreamD2Ev"
  "__ZTV15BaseCryptStream"
  "__ZN15BaseCryptStreamD1Ev"
  "__ZN13EncryptStreamD2Ev"
  "__ZTV13EncryptStream"
  "__ZN13EncryptStreamD1Ev"
  "__ZN13EncryptStreamD0Ev"
  "__ZN13DecryptStreamD2Ev"
  "__ZTV13DecryptStream"
  "__ZN13DecryptStreamD1Ev"
  "__ZN13DecryptStreamD0Ev"
  "__ZN15BaseCryptStreamD0Ev"
  "__ZN15BaseCryptStream13setAutoDeleteEb"
  "__Z3md5PhiS_"
  "__ZN7Decrypt12makeFileKey2EiiiP9GooStringS1_iS1_S1_Phb"
  "__ZN15BaseCryptStreamC2EP6StreamPh14CryptAlgorithmiii"
  "__ZN15BaseCryptStreamC1EP6StreamPh14CryptAlgorithmiii"
  "__ZN13EncryptStreamC2EP6StreamPh14CryptAlgorithmiii"
  "__ZN13EncryptStreamC1EP6StreamPh14CryptAlgorithmiii"
  "__ZN13DecryptStreamC2EP6StreamPh14CryptAlgorithmiii"
  "__ZN13DecryptStreamC1EP6StreamPh14CryptAlgorithmiii"
  "__Z15sha256HashBlockPhPj"
  "__ZN7Decrypt11makeFileKeyEiiiP9GooStringS1_S1_S1_iS1_S1_S1_PhbPb"
  "__ZTS15BaseCryptStream"
  "__ZTI15BaseCryptStream"
  "__ZTS13EncryptStream"
  "__ZTI13EncryptStream"
  "__ZTS13DecryptStream"
  "__ZTI13DecryptStream"
  "__ZN4DictC2EP4XRef"
  "__ZN4DictC1EP4XRef"
  "__ZN4DictC2EPS_"
  "__ZN4DictC1EPS_"
  "__ZN4Dict4copyEP4XRef"
  "__ZN4DictD2Ev"
  "__ZN4DictD1Ev"
  "__ZN4Dict6incRefEv"
  "__ZN4Dict6decRefEv"
  "__ZN4Dict3addEPcP6Object"
  "__ZN4Dict6removeEPKc"
  "__ZN4Dict6getKeyEi"
  "__ZN4Dict6getValEiP6Object"
  "__ZN4Dict8getValNFEiP6Object"
  "__ZSt22__move_median_to_firstIP9DictEntryN9__gnu_cxx5__ops15_Iter_comp_iterIPFbRKS0_S6_EEEEvT_SA_SA_SA_T0_"
  "__ZSt25__unguarded_linear_insertIP9DictEntryN9__gnu_cxx5__ops14_Val_comp_iterIPFbRKS0_S6_EEEEvT_T0_"
  "__ZSt16__insertion_sortIP9DictEntryN9__gnu_cxx5__ops15_Iter_comp_iterIPFbRKS0_S6_EEEEvT_SA_T0_"
  "__ZSt13__adjust_heapIP9DictEntryiS0_N9__gnu_cxx5__ops15_Iter_comp_iterIPFbRKS0_S6_EEEEvT_T0_SB_T1_T2_"
  "__ZSt13__heap_selectIP9DictEntryN9__gnu_cxx5__ops15_Iter_comp_iterIPFbRKS0_S6_EEEEvT_SA_SA_T0_"
  "__ZSt16__introsort_loopIP9DictEntryiN9__gnu_cxx5__ops15_Iter_comp_iterIPFbRKS0_S6_EEEEvT_SA_T0_T1_"
  "__ZN4Dict6hasKeyEPKc"
  "__ZN4Dict2isEPKc"
  "__ZN4Dict8lookupNFEPKcP6Object"
  "__ZN4Dict6lookupEPKcP6Objecti"
  "__ZN4Dict9lookupIntEPKcS1_Pi"
  "__ZN4Dict3setEPKcP6Object"
  "__Z16setErrorCallbackPFvPv13ErrorCategoryxPcES_"
  "__Z5error13ErrorCategoryxPKcz"
  "__ZN7EmbFileC2EP6Object"
  "__ZN7EmbFileC1EP6Object"
  "__ZN7EmbFileD2Ev"
  "__ZN7EmbFileD1Ev"
  "__ZN7EmbFile5save2EP7__sFILE"
  "__ZN7EmbFile4saveEPKc"
  "__ZN8FileSpecD2Ev"
  "__ZN8FileSpecD1Ev"
  "__ZN8FileSpec15getEmbeddedFileEv"
  "__Z15getFileSpecNameP6ObjectS0_"
  "__ZN8FileSpecC2EP6Object"
  "__ZN8FileSpecC1EP6Object"
  "__Z26getFileSpecNameForPlatformP6ObjectS0_"
  "__ZN8FileSpec22getFileNameForPlatformEv"
  "__ZN10BaseStream9getLengthEv"
  "__ZN16FormWidgetButton22updateWidgetAppearanceEv"
  "__ZN19FormWidgetSignature22updateWidgetAppearanceEv"
  "__ZN14FormWidgetText22updateWidgetAppearanceEv"
  "__ZN16FormWidgetChoice22updateWidgetAppearanceEv"
  "__ZN9FormFieldD2Ev"
  "__ZTV9FormField"
  "__ZN9FormFieldD1Ev"
  "__ZN13FormFieldTextD2Ev"
  "__ZTV13FormFieldText"
  "__ZN13FormFieldTextD1Ev"
  "__ZN13FormFieldTextD0Ev"
  "__ZN9FormFieldD0Ev"
  "__ZN15FormFieldButtonD2Ev"
  "__ZTV15FormFieldButton"
  "__ZN15FormFieldButtonD1Ev"
  "__ZN15FormFieldButtonD0Ev"
  "__ZN15FormFieldChoiceD2Ev"
  "__ZTV15FormFieldChoice"
  "__ZN15FormFieldChoiceD1Ev"
  "__ZN15FormFieldChoiceD0Ev"
  "__ZN18FormFieldSignatureD2Ev"
  "__ZTV18FormFieldSignature"
  "__ZN18FormFieldSignatureD1Ev"
  "__ZN18FormFieldSignatureD0Ev"
  "__ZN9FormField22fillChildrenSiblingsIDEv"
  "__ZN15FormFieldButton22fillChildrenSiblingsIDEv"
  "__ZTI15FormFieldButton"
  "__ZTI9FormField"
  "__Z21pdfDocEncodingToUTF16P9GooStringPi"
  "__ZN10FormWidgetC2EP6PDFDocP6Objectj3RefP9FormField"
  "__ZTV10FormWidget"
  "__ZN10FormWidgetC1EP6PDFDocP6Objectj3RefP9FormField"
  "__ZN10FormWidgetD2Ev"
  "__ZN10FormWidgetD1Ev"
  "__ZN16FormWidgetButtonD2Ev"
  "__ZTV16FormWidgetButton"
  "__ZN16FormWidgetButtonD1Ev"
  "__ZN16FormWidgetButtonD0Ev"
  "__ZN16FormWidgetChoiceD2Ev"
  "__ZTV16FormWidgetChoice"
  "__ZN16FormWidgetChoiceD1Ev"
  "__ZN16FormWidgetChoiceD0Ev"
  "__ZN19FormWidgetSignatureD1Ev"
  "__ZTV19FormWidgetSignature"
  "__ZN19FormWidgetSignatureD0Ev"
  "__ZN14FormWidgetTextD1Ev"
  "__ZTV14FormWidgetText"
  "__ZN14FormWidgetTextD0Ev"
  "__ZN10FormWidgetD0Ev"
  "__ZN10FormWidget22createWidgetAnnotationEv"
  "__ZNK10FormWidget6inRectEdd"
  "__ZNK10FormWidget7getRectEPdS0_S0_S0_"
  "__ZNK10FormWidget11getFontSizeEv"
  "__ZNK10FormWidget10isReadOnlyEv"
  "__ZN10FormWidget8encodeIDEjj"
  "__ZN10FormWidget8decodeIDEjPjS0_"
  "__ZNK10FormWidget14getPartialNameEv"
  "__ZNK10FormWidget18getAlternateUiNameEv"
  "__ZNK10FormWidget14getMappingNameEv"
  "__ZN10FormWidget19getActivationActionEv"
  "__ZN10FormWidget19getAdditionalActionEN5Annot25FormAdditionalActionsTypeE"
  "__ZN16FormWidgetButtonC2EP6PDFDocP6Objectj3RefP9FormField"
  "__ZN16FormWidgetButtonC1EP6PDFDocP6Objectj3RefP9FormField"
  "__ZN16FormWidgetButton8getOnStrEv"
  "__ZNK16FormWidgetButton13getButtonTypeEv"
  "__ZN16FormWidgetButton18setAppearanceStateEPKc"
  "__ZN14FormWidgetTextC2EP6PDFDocP6Objectj3RefP9FormField"
  "__ZN14FormWidgetTextC1EP6PDFDocP6Objectj3RefP9FormField"
  "__ZN14FormWidgetText10getContentEv"
  "__ZNK14FormWidgetText11isMultilineEv"
  "__ZNK14FormWidgetText10isPasswordEv"
  "__ZNK14FormWidgetText12isFileSelectEv"
  "__ZNK14FormWidgetText12noSpellCheckEv"
  "__ZNK14FormWidgetText8noScrollEv"
  "__ZNK14FormWidgetText6isCombEv"
  "__ZNK14FormWidgetText10isRichTextEv"
  "__ZNK14FormWidgetText9getMaxLenEv"
  "__ZN16FormWidgetChoiceC2EP6PDFDocP6Objectj3RefP9FormField"
  "__ZN16FormWidgetChoiceC1EP6PDFDocP6Objectj3RefP9FormField"
  "__ZN16FormWidgetChoice11_checkRangeEi"
  "__ZN16FormWidgetChoice13getEditChoiceEv"
  "__ZN16FormWidgetChoice10isSelectedEi"
  "__ZN16FormWidgetChoice13getNumChoicesEv"
  "__ZN16FormWidgetChoice9getChoiceEi"
  "__ZNK16FormWidgetChoice7isComboEv"
  "__ZNK16FormWidgetChoice7hasEditEv"
  "__ZNK16FormWidgetChoice13isMultiSelectEv"
  "__ZNK16FormWidgetChoice12noSpellCheckEv"
  "__ZNK16FormWidgetChoice17commitOnSelChangeEv"
  "__ZNK16FormWidgetChoice9isListBoxEv"
  "__ZN19FormWidgetSignatureC2EP6PDFDocP6Objectj3RefP9FormField"
  "__ZN19FormWidgetSignatureC1EP6PDFDocP6Objectj3RefP9FormField"
  "__ZN9FormField23createWidgetAnnotationsEv"
  "__ZN9FormField13_createWidgetEP6Object3Ref"
  "__ZN9FormField15findWidgetByRefE3Ref"
  "__ZN9FormField21getFullyQualifiedNameEv"
  "__ZN10FormWidget21getFullyQualifiedNameEv"
  "__ZN9FormField24updateChildrenAppearanceEv"
  "__ZN15FormFieldButton14setNumSiblingsEi"
  "__ZN15FormFieldButton8getStateEPc"
  "__ZN16FormWidgetButton8getStateEv"
  "__ZN15FormFieldButton11updateStateEPc"
  "__ZN15FormFieldButton8setStateEPc"
  "__ZN16FormWidgetButton8setStateEb"
  "__ZN13FormFieldText14getContentCopyEv"
  "__ZN14FormWidgetText14getContentCopyEv"
  "__ZN13FormFieldText14setContentCopyEP9GooString"
  "__ZN14FormWidgetText10setContentEP9GooString"
  "__ZN15FormFieldChoice15updateSelectionEv"
  "__ZN15FormFieldChoice11unselectAllEv"
  "__ZN15FormFieldChoice11deselectAllEv"
  "__ZN16FormWidgetChoice11deselectAllEv"
  "__ZN15FormFieldChoice6toggleEi"
  "__ZN16FormWidgetChoice6toggleEi"
  "__ZN15FormFieldChoice6selectEi"
  "__ZN16FormWidgetChoice6selectEi"
  "__ZN15FormFieldChoice13setEditChoiceEP9GooString"
  "__ZN16FormWidgetChoice13setEditChoiceEP9GooString"
  "__ZN15FormFieldChoice13getEditChoiceEv"
  "__ZN15FormFieldChoice14getNumSelectedEv"
  "__ZN15FormFieldChoice17getSelectedChoiceEv"
  "__ZN18FormFieldSignature9parseInfoEv"
  "__ZN18FormFieldSignature19hashSignedDataBlockEP16SignatureHandlerx"
  "__ZN18FormFieldSignature17validateSignatureEbb"
  "__ZN19FormWidgetSignature17validateSignatureEbb"
  "__ZN4FormD2Ev"
  "__ZN4FormD1Ev"
  "__ZN4Form15postWidgetsLoadEv"
  "__ZN4Form15findWidgetByRefE3Ref"
  "__ZN15FormPageWidgetsC2EP6AnnotsjP4Form"
  "__ZN15FormPageWidgetsC1EP6AnnotsjP4Form"
  "__ZN15FormPageWidgetsD2Ev"
  "__ZN15FormPageWidgetsD1Ev"
  "__ZNSt8_Rb_treeIiiSt9_IdentityIiESt4lessIiESaIiEE4findERKi"
  "__ZNSt8_Rb_treeIiiSt9_IdentityIiESt4lessIiESaIiEE8_M_eraseEPSt13_Rb_tree_nodeIiE"
  "__ZNSt8_Rb_treeIiiSt9_IdentityIiESt4lessIiESaIiEE16_M_insert_uniqueERKi"
  "__ZN4Form11fieldLookupEP4DictPKcP6Object"
  "__ZNSt8_Rb_treeIiiSt9_IdentityIiESt4lessIiESaIiEE7_M_copyEPKSt13_Rb_tree_nodeIiEPS7_"
  "__ZN9FormFieldC2EP6PDFDocP6ObjectRK3RefPS_PSt3setIiSt4lessIiESaIiEE13FormFieldType"
  "__ZN4Form19createFieldFromDictEP6ObjectP6PDFDocRK3RefP9FormFieldPSt3setIiSt4lessIiESaIiEE"
  "__ZN9FormFieldC1EP6PDFDocP6ObjectRK3RefPS_PSt3setIiSt4lessIiESaIiEE13FormFieldType"
  "__ZN15FormFieldButtonC2EP6PDFDocP6ObjectRK3RefP9FormFieldPSt3setIiSt4lessIiESaIiEE"
  "__ZN15FormFieldButtonC1EP6PDFDocP6ObjectRK3RefP9FormFieldPSt3setIiSt4lessIiESaIiEE"
  "__ZN13FormFieldTextC2EP6PDFDocP6ObjectRK3RefP9FormFieldPSt3setIiSt4lessIiESaIiEE"
  "__ZN13FormFieldTextC1EP6PDFDocP6ObjectRK3RefP9FormFieldPSt3setIiSt4lessIiESaIiEE"
  "__ZN15FormFieldChoiceC2EP6PDFDocP6ObjectRK3RefP9FormFieldPSt3setIiSt4lessIiESaIiEE"
  "__ZN15FormFieldChoiceC1EP6PDFDocP6ObjectRK3RefP9FormFieldPSt3setIiSt4lessIiESaIiEE"
  "__ZN18FormFieldSignatureC2EP6PDFDocP6ObjectRK3RefP9FormFieldPSt3setIiSt4lessIiESaIiEE"
  "__ZN18FormFieldSignatureC1EP6PDFDocP6ObjectRK3RefP9FormFieldPSt3setIiSt4lessIiESaIiEE"
  "__ZN4FormC2EP6PDFDocP6Object"
  "__ZN4FormC1EP6PDFDocP6Object"
  "__ZTS10FormWidget"
  "__ZTI10FormWidget"
  "__ZTS16FormWidgetButton"
  "__ZTI16FormWidgetButton"
  "__ZTS14FormWidgetText"
  "__ZTI14FormWidgetText"
  "__ZTS16FormWidgetChoice"
  "__ZTI16FormWidgetChoice"
  "__ZTS19FormWidgetSignature"
  "__ZTI19FormWidgetSignature"
  "__ZTS9FormField"
  "__ZTS15FormFieldButton"
  "__ZTS13FormFieldText"
  "__ZTI13FormFieldText"
  "__ZTS15FormFieldChoice"
  "__ZTI15FormFieldChoice"
  "__ZTS18FormFieldSignature"
  "__ZTI18FormFieldSignature"
  "__ZN15FontInfoScannerC2EP6PDFDoci"
  "__ZN15FontInfoScannerC1EP6PDFDoci"
  "__ZN8FontInfoC2EP7GfxFontP4XRef"
  "__ZN8FontInfoC1EP7GfxFontP4XRef"
  "__ZN8FontInfoC2ERS_"
  "__ZN8FontInfoC1ERS_"
  "__ZN8FontInfoD2Ev"
  "__ZN8FontInfoD1Ev"
  "__ZN15FontInfoScannerD2Ev"
  "__ZN15FontInfoScannerD1Ev"
  "__ZN15FontInfoScanner9scanFontsEP4XRefP4DictP7GooList"
  "__ZN15FontInfoScanner4scanEi"
  "__ZN8Function21hasDifferentResultSetEPS_"
  "__ZN16IdentityFunction7getTypeEv"
  "__ZN16IdentityFunction4isOkEv"
  "__ZN15SampledFunction7getTypeEv"
  "__ZN15SampledFunction4isOkEv"
  "__ZN19ExponentialFunction7getTypeEv"
  "__ZN19ExponentialFunction4isOkEv"
  "__ZN17StitchingFunction7getTypeEv"
  "__ZN17StitchingFunction4isOkEv"
  "__ZN18PostScriptFunction7getTypeEv"
  "__ZN18PostScriptFunction4isOkEv"
  "__ZN16IdentityFunctionD2Ev"
  "__ZN16IdentityFunctionD1Ev"
  "__ZN16IdentityFunction9transformEPdS0_"
  "__ZN19ExponentialFunctionD2Ev"
  "__ZN19ExponentialFunctionD1Ev"
  "__ZN17StitchingFunction9transformEPdS0_"
  "__ZN16IdentityFunctionD0Ev"
  "__ZN19ExponentialFunctionD0Ev"
  "__ZN16IdentityFunction4copyEv"
  "__ZTV16IdentityFunction"
  "__ZN15SampledFunction9transformEPdS0_"
  "__ZN19ExponentialFunction9transformEPdS0_"
  "__ZN15SampledFunctionD2Ev"
  "__ZTV15SampledFunction"
  "__ZN15SampledFunctionD1Ev"
  "__ZN15SampledFunctionD0Ev"
  "__ZN17StitchingFunctionD2Ev"
  "__ZTV17StitchingFunction"
  "__ZN17StitchingFunctionD1Ev"
  "__ZN17StitchingFunctionD0Ev"
  "__ZN18PostScriptFunctionD2Ev"
  "__ZTV18PostScriptFunction"
  "__ZN18PostScriptFunctionD1Ev"
  "__ZN18PostScriptFunctionD0Ev"
  "__ZN15SampledFunction21hasDifferentResultSetEP8Function"
  "__ZN8FunctionC2Ev"
  "__ZTV8Function"
  "__ZN8FunctionC1Ev"
  "__ZN8FunctionD2Ev"
  "__ZN8FunctionD1Ev"
  "__ZN8FunctionD0Ev"
  "__ZN8FunctionC2EPKS_"
  "__ZN8FunctionC1EPKS_"
  "__ZN8Function4initEP4Dict"
  "__ZN16IdentityFunctionC2Ev"
  "__ZN16IdentityFunctionC1Ev"
  "__ZN15SampledFunctionC2EP6ObjectP4Dict"
  "__ZN15SampledFunctionC1EP6ObjectP4Dict"
  "__ZN15SampledFunctionC2EPKS_"
  "__ZN15SampledFunctionC1EPKS_"
  "__ZN15SampledFunction4copyEv"
  "__ZN19ExponentialFunctionC2EP6ObjectP4Dict"
  "__ZTV19ExponentialFunction"
  "__ZN19ExponentialFunctionC1EP6ObjectP4Dict"
  "__ZN19ExponentialFunctionC2EPKS_"
  "__ZN19ExponentialFunctionC1EPKS_"
  "__ZN19ExponentialFunction4copyEv"
  "__ZN17StitchingFunctionC2EPKS_"
  "__ZN17StitchingFunctionC1EPKS_"
  "__ZN17StitchingFunction4copyEv"
  "__ZN7PSStack6popIntEv"
  "__ZN7PSStack6popNumEv"
  "__ZN7PSStack4copyEi"
  "__ZN7PSStack4rollEii"
  "__ZN18PostScriptFunctionC2EPKS_"
  "__ZN18PostScriptFunctionC1EPKS_"
  "__ZN18PostScriptFunction4copyEv"
  "__ZN18PostScriptFunction8getTokenEP6Stream"
  "__ZN18PostScriptFunction10resizeCodeEi"
  "__ZN18PostScriptFunction9parseCodeEP6StreamPi"
  "__ZN18PostScriptFunction4execEP7PSStacki"
  "__ZN18PostScriptFunction9transformEPdS0_"
  "__ZN18PostScriptFunctionC2EP6ObjectP4Dict"
  "__ZN18PostScriptFunctionC1EP6ObjectP4Dict"
  "__ZN17StitchingFunctionC2EP6ObjectP4DictPSt3setIiSt4lessIiESaIiEE"
  "__ZN8Function5parseEP6ObjectPSt3setIiSt4lessIiESaIiEE"
  "__ZN17StitchingFunctionC1EP6ObjectP4DictPSt3setIiSt4lessIiESaIiEE"
  "__ZN8Function5parseEP6Object"
  "__ZTS8Function"
  "__ZTI8Function"
  "__ZTS16IdentityFunction"
  "__ZTI16IdentityFunction"
  "__ZTS15SampledFunction"
  "__ZTI15SampledFunction"
  "__ZTS19ExponentialFunction"
  "__ZTI19ExponentialFunction"
  "__ZTS17StitchingFunction"
  "__ZTI17StitchingFunction"
  "__ZTS18PostScriptFunction"
  "__ZTI18PostScriptFunction"
  "__ZN9OutputDev20useTilingPatternFillEv"
  "__ZN9OutputDev14useShadedFillsEi"
  "__ZN9OutputDev9startPageEiP8GfxStateP4XRef"
  "__ZN9OutputDev7endPageEv"
  "__ZN9OutputDev9saveStateEP8GfxState"
  "__ZN9OutputDev12restoreStateEP8GfxState"
  "__ZN9OutputDev9updateCTMEP8GfxStatedddddd"
  "__ZN9OutputDev14updateLineDashEP8GfxState"
  "__ZN9OutputDev14updateFlatnessEP8GfxState"
  "__ZN9OutputDev14updateLineJoinEP8GfxState"
  "__ZN9OutputDev13updateLineCapEP8GfxState"
  "__ZN9OutputDev16updateMiterLimitEP8GfxState"
  "__ZN9OutputDev15updateLineWidthEP8GfxState"
  "__ZN9OutputDev18updateStrokeAdjustEP8GfxState"
  "__ZN9OutputDev20updateFillColorSpaceEP8GfxState"
  "__ZN9OutputDev22updateStrokeColorSpaceEP8GfxState"
  "__ZN9OutputDev15updateFillColorEP8GfxState"
  "__ZN9OutputDev17updateStrokeColorEP8GfxState"
  "__ZN9OutputDev15updateBlendModeEP8GfxState"
  "__ZN9OutputDev17updateFillOpacityEP8GfxState"
  "__ZN9OutputDev19updateStrokeOpacityEP8GfxState"
  "__ZN9OutputDev20updatePatternOpacityEP8GfxState"
  "__ZN9OutputDev19clearPatternOpacityEP8GfxState"
  "__ZN9OutputDev19updateFillOverprintEP8GfxState"
  "__ZN9OutputDev21updateStrokeOverprintEP8GfxState"
  "__ZN9OutputDev19updateOverprintModeEP8GfxState"
  "__ZN9OutputDev14updateTransferEP8GfxState"
  "__ZN9OutputDev10updateFontEP8GfxState"
  "__ZN9OutputDev6strokeEP8GfxState"
  "__ZN9OutputDev4fillEP8GfxState"
  "__ZN9OutputDev6eoFillEP8GfxState"
  "__ZN9OutputDev17tilingPatternFillEP8GfxStateP3GfxP7CatalogP6ObjectPdiiP4DictS8_S8_iiiidd"
  "__ZN9OutputDev18functionShadedFillEP8GfxStateP18GfxFunctionShading"
  "__ZN9OutputDev15axialShadedFillEP8GfxStateP15GfxAxialShadingdd"
  "__ZN9OutputDev16radialShadedFillEP8GfxStateP16GfxRadialShadingdd"
  "__ZN9OutputDev25gouraudTriangleShadedFillEP8GfxStateP25GfxGouraudTriangleShading"
  "__ZN9OutputDev4clipEP8GfxState"
  "__ZN9OutputDev6eoClipEP8GfxState"
  "__ZN9OutputDev16clipToStrokePathEP8GfxState"
  "__ZN9OutputDev8drawCharEP8GfxStateddddddjiPji"
  "__ZN9OutputDev12endType3CharEP8GfxState"
  "__ZN9OutputDev15beginTextObjectEP8GfxState"
  "__ZN9OutputDev13endTextObjectEP8GfxState"
  "__ZN9OutputDev7type3D0EP8GfxStatedd"
  "__ZN9OutputDev7type3D1EP8GfxStatedddddd"
  "__ZN9OutputDev22beginTransparencyGroupEP8GfxStatePdP13GfxColorSpacebbb"
  "__ZN9OutputDev20endTransparencyGroupEP8GfxState"
  "__ZN9OutputDev22paintTransparencyGroupEP8GfxStatePd"
  "__ZN9OutputDev11setSoftMaskEP8GfxStatePdbP8FunctionP8GfxColor"
  "__ZN9OutputDev13clearSoftMaskEP8GfxState"
  "__ZN9OutputDev18getVectorAntialiasEv"
  "__ZN9OutputDev18setVectorAntialiasEb"
  "__ZN3Gfx6opClipEP6Objecti"
  "__ZN3Gfx8opEOClipEP6Objecti"
  "__ZN3Gfx18opBeginIgnoreUndefEP6Objecti"
  "__ZN3Gfx16opEndIgnoreUndefEP6Objecti"
  "__ZN3Gfx9opEndTextEP6Objecti"
  "__ZN3Gfx11opBeginTextEP6Objecti"
  "__ZN3Gfx14opTextNextLineEP6Objecti"
  "__ZN3Gfx13opSetLineJoinEP6Objecti"
  "__ZN3Gfx12opSetLineCapEP6Objecti"
  "__ZN3Gfx15opSetTextRenderEP6Objecti"
  "__ZN3Gfx20opSetRenderingIntentEP6Objecti"
  "__ZN3Gfx11opMarkPointEP6Objecti"
  "__ZN3Gfx16opSetTextLeadingEP6Objecti"
  "__ZN3Gfx16opSetCharSpacingEP6Objecti"
  "__ZN3Gfx16opSetWordSpacingEP6Objecti"
  "__ZN3Gfx13opSetTextRiseEP6Objecti"
  "__ZN3Gfx14opSetLineWidthEP6Objecti"
  "__ZN3Gfx15opSetMiterLimitEP6Objecti"
  "__ZN3Gfx9opSetFlatEP6Objecti"
  "__ZN3Gfx17opSetHorizScalingEP6Objecti"
  "__ZN3Gfx14opSetCharWidthEP6Objecti"
  "__ZN3Gfx8opMoveToEP6Objecti"
  "__ZN3Gfx10opTextMoveEP6Objecti"
  "__ZN3Gfx13opTextMoveSetEP6Objecti"
  "__ZN3Gfx16opSetCacheDeviceEP6Objecti"
  "__ZN3Gfx15opSetTextMatrixEP6Objecti"
  "__ZN3Gfx11opRectangleEP6Objecti"
  "__ZN3Gfx8opConcatEP6Objecti"
  "__ZN3Gfx9opSetDashEP6Objecti"
  "__ZN6Object6getNumEv"
  "__ZN6Object6getRefEv"
  "__ZN6Stream15toUnsignedCharsEPiii"
  "__ZN12GfxResourcesC2EP4XRefP4DictPS_"
  "__ZN12GfxResourcesC1EP4XRefP4DictPS_"
  "__ZN12GfxResourcesD2Ev"
  "__ZN12GfxResourcesD1Ev"
  "__ZN12GfxResources10lookupFontEPc"
  "__ZN3Gfx9opSetFontEP6Objecti"
  "__ZN12GfxResources13lookupXObjectEPcP6Object"
  "__ZN12GfxResources15lookupXObjectNFEPcP6Object"
  "__ZN12GfxResources21lookupMarkedContentNFEPcP6Object"
  "__ZN12GfxResources16lookupColorSpaceEPKcP6Object"
  "__ZN3Gfx13opSetFillGrayEP6Objecti"
  "__ZN3Gfx15opSetStrokeGrayEP6Objecti"
  "__ZN3Gfx18opSetFillCMYKColorEP6Objecti"
  "__ZN3Gfx20opSetStrokeCMYKColorEP6Objecti"
  "__ZN3Gfx17opSetFillRGBColorEP6Objecti"
  "__ZN3Gfx19opSetStrokeRGBColorEP6Objecti"
  "__ZN12GfxResources13lookupPatternEPcP9OutputDevP8GfxState"
  "__ZN12GfxResources13lookupShadingEPcP9OutputDevP8GfxState"
  "__ZN12GfxResources14lookupGStateNFEPcP6Object"
  "__ZN12GfxResources12lookupGStateEPcP6Object"
  "__ZN3Gfx18initDisplayProfileEv"
  "__ZN3Gfx6findOpEPc"
  "__ZN3Gfx8checkArgEP6Object8TchkType"
  "__ZN3Gfx6getPosEv"
  "__ZN3Gfx6execOpEP6ObjectS1_i"
  "__ZN3Gfx19opSetFillColorSpaceEP6Objecti"
  "__ZN3Gfx21opSetStrokeColorSpaceEP6Objecti"
  "__ZN3Gfx14opSetFillColorEP6Objecti"
  "__ZN3Gfx16opSetStrokeColorEP6Objecti"
  "__ZN3Gfx15opSetFillColorNEP6Objecti"
  "__ZN3Gfx17opSetStrokeColorNEP6Objecti"
  "__ZN3Gfx8opLineToEP6Objecti"
  "__ZN3Gfx9opCurveToEP6Objecti"
  "__ZN3Gfx10opCurveTo1EP6Objecti"
  "__ZN3Gfx10opCurveTo2EP6Objecti"
  "__ZN3Gfx11opClosePathEP6Objecti"
  "__ZN3Gfx11opImageDataEP6Objecti"
  "__ZN3Gfx10opEndImageEP6Objecti"
  "__ZN3Gfx18opEndMarkedContentEP6Objecti"
  "__ZN3Gfx17doFunctionShFill1EP18GfxFunctionShadingddddP8GfxColori"
  "__ZN3Gfx16doFunctionShFillEP18GfxFunctionShading"
  "__ZN3Gfx13doAxialShFillEP15GfxAxialShading"
  "__ZN3Gfx14doRadialShFillEP16GfxRadialShading"
  "__ZN3Gfx19gouraudFillTriangleEddP8GfxColorddS1_ddS1_iiPN8GfxState20ReusablePathIteratorE"
  "__ZN3Gfx19gouraudFillTriangleEddddddddddiP25GfxGouraudTriangleShadingPN8GfxState20ReusablePathIteratorE"
  "__ZN3Gfx23doGouraudTriangleShFillEP25GfxGouraudTriangleShading"
  "__ZN3Gfx9fillPatchEP8GfxPatchiidiP19GfxPatchMeshShading"
  "__ZN3Gfx17doPatchMeshShFillEP19GfxPatchMeshShading"
  "__ZN3Gfx9doEndPathEv"
  "__ZN3Gfx9opEndPathEP6Objecti"
  "__ZN3Gfx14doIncCharCountEP9GooString"
  "__ZN3Gfx16buildImageStreamEv"
  "__ZN3Gfx16popMarkedContentEv"
  "__ZN3Gfx17pushMarkedContentEv"
  "__ZN3Gfx20opBeginMarkedContentEP6Objecti"
  "__ZN3Gfx15contentIsHiddenEv"
  "__ZN3Gfx11bottomGuardEv"
  "__ZN3Gfx9saveStateEv"
  "__ZN3Gfx6opSaveEP6Objecti"
  "__ZN3Gfx12restoreStateEv"
  "__ZN3Gfx9opRestoreEP6Objecti"
  "__ZN3Gfx13popStateGuardEv"
  "__ZN3Gfx14saveStateStackEv"
  "__ZN3Gfx17restoreStateStackEP8GfxState"
  "__ZN3Gfx20doShadingPatternFillEP17GfxShadingPatternbbb"
  "__ZN3Gfx8opShFillEP6Objecti"
  "__ZN3Gfx13pushResourcesEP4Dict"
  "__ZN3Gfx12popResourcesEv"
  "__ZN3Gfx22checkTransparencyGroupEP4Dict"
  "__ZN3GfxD2Ev"
  "__ZN3GfxD1Ev"
  "__ZN3Gfx2goEb"
  "__ZN3Gfx7displayEP6Objectb"
  "__ZN3Gfx8drawFormEP6ObjectP4DictPdS4_bbP13GfxColorSpacebbbP8FunctionP8GfxColor"
  "__ZN3Gfx10doSoftMaskEP6ObjectbP13GfxColorSpacebbP8FunctionP8GfxColor"
  "__ZN3Gfx14opSetExtGStateEP6Objecti"
  "__ZN3Gfx19doTilingPatternFillEP16GfxTilingPatternbbb"
  "__ZN3Gfx13doPatternFillEb"
  "__ZN3Gfx6opFillEP6Objecti"
  "__ZN3Gfx8opEOFillEP6Objecti"
  "__ZN3Gfx15doPatternStrokeEv"
  "__ZN3Gfx8opStrokeEP6Objecti"
  "__ZN3Gfx13opCloseStrokeEP6Objecti"
  "__ZN3Gfx12opFillStrokeEP6Objecti"
  "__ZN3Gfx17opCloseFillStrokeEP6Objecti"
  "__ZN3Gfx14opEOFillStrokeEP6Objecti"
  "__ZN3Gfx19opCloseEOFillStrokeEP6Objecti"
  "__ZN3Gfx13doPatternTextEv"
  "__ZN3Gfx18doPatternImageMaskEP6ObjectP6Streamiibb"
  "__ZN3Gfx7doImageEP6ObjectP6Streamb"
  "__ZN3Gfx12opBeginImageEP6Objecti"
  "__ZN3Gfx6doFormEP6Object"
  "__ZN3Gfx9opXObjectEP6Objecti"
  "__ZN3Gfx9drawAnnotEP6ObjectP11AnnotBorderP10AnnotColorddddi"
  "__ZN3Gfx10doShowTextEP9GooString"
  "__ZN3Gfx10opShowTextEP6Objecti"
  "__ZN3Gfx14opMoveShowTextEP6Objecti"
  "__ZN3Gfx17opMoveSetShowTextEP6Objecti"
  "__ZN3Gfx15opShowSpaceTextEP6Objecti"
  "__ZN3Gfx14pushStateGuardEv"
  "__ZN3GfxC2EP6PDFDocP9OutputDevP4DictP12PDFRectangleS7_PFbPvES8_P4XRef"
  "__ZN3GfxC1EP6PDFDocP9OutputDevP4DictP12PDFRectangleS7_PFbPvES8_P4XRef"
  "__ZN3GfxC2EP6PDFDocP9OutputDeviP4DictddP12PDFRectangleS7_iPFbPvES8_P4XRef"
  "__ZN3GfxC1EP6PDFDocP9OutputDeviP4DictddP12PDFRectangleS7_iPFbPvES8_P4XRef"
  "__ZN7GfxFont8getWModeEv"
  "__ZN10GfxCIDFont9isCIDFontEv"
  "__ZN10GfxCIDFont8getWModeEv"
  "__ZN11Gfx8BitFont11getNextCharEPciPjPS1_PiPdS4_S4_S4_"
  "__ZN11Gfx8BitFont12getToUnicodeEv"
  "__ZN10GfxCIDFont12getToUnicodeEv"
  "__ZN10GfxFontLocC2Ev"
  "__ZN10GfxFontLocC1Ev"
  "__ZN10GfxFontLocD2Ev"
  "__ZN10GfxFontLocD1Ev"
  "__ZN7GfxFontC2EPKc3RefP9GooString11GfxFontTypeS2_"
  "__ZTV7GfxFont"
  "__ZN7GfxFontC1EPKc3RefP9GooString11GfxFontTypeS2_"
  "__ZN7GfxFontD2Ev"
  "__ZN7GfxFontD1Ev"
  "__ZN11Gfx8BitFontD2Ev"
  "__ZTV11Gfx8BitFont"
  "__ZN11Gfx8BitFontD1Ev"
  "__ZN11Gfx8BitFontD0Ev"
  "__ZN10GfxCIDFontD2Ev"
  "__ZTV10GfxCIDFont"
  "__ZN10GfxCIDFontD1Ev"
  "__ZN10GfxCIDFontD0Ev"
  "__ZN7GfxFontD0Ev"
  "__ZN7GfxFont9incRefCntEv"
  "__ZN7GfxFont9decRefCntEv"
  "__ZN7GfxFont11getFontTypeEP4XRefP4DictP3Ref"
  "__ZN7GfxFont18readFontDescriptorEP4XRefP4Dict"
  "__ZN7GfxFont17readToUnicodeCMapEP4DictiP17CharCodeToUnicode"
  "__ZN7GfxFont15getExternalFontEP9GooStringb"
  "__ZN7GfxFont16locateBase14FontEP9GooString"
  "__ZN7GfxFont10locateFontEP4XRefP11PSOutputDev"
  "__ZN7GfxFont15readEmbFontFileEP4XRefPi"
  "__ZN7GfxFont16getAlternateNameEPKc"
  "__ZN11Gfx8BitFontC2EP4XRefPKc3RefP9GooString11GfxFontTypeS4_P4Dict"
  "__ZN11Gfx8BitFontC1EP4XRefPKc3RefP9GooString11GfxFontTypeS4_P4Dict"
  "__ZN11Gfx8BitFont15getCodeToGIDMapEP12FoFiTrueType"
  "__ZN11Gfx8BitFont12getCharProcsEv"
  "__ZN11Gfx8BitFont11getCharProcEiP6Object"
  "__ZN11Gfx8BitFont12getResourcesEv"
  "__ZN10GfxCIDFont13getCollectionEv"
  "__ZN10GfxCIDFont12mapCodeToGIDEP12FoFiTrueTypeijb"
  "__ZN10GfxCIDFont15getCodeToGIDMapEP12FoFiTrueTypePi"
  "__ZN10GfxCIDFont8getWidthEj"
  "__ZN10GfxCIDFont11getNextCharEPciPjPS1_PiPdS4_S4_S4_"
  "__ZN10GfxCIDFont8getWidthEPci"
  "__ZN11GfxFontDictD2Ev"
  "__ZN11GfxFontDictD1Ev"
  "__ZN11GfxFontDict6lookupEPc"
  "__ZSt13__adjust_heapIP20GfxFontCIDWidthExcepiS0_N9__gnu_cxx5__ops15_Iter_comp_iterI20cmpWidthExcepFunctorEEEvT_T0_S8_T1_T2_"
  "__ZSt13__heap_selectIP20GfxFontCIDWidthExcepN9__gnu_cxx5__ops15_Iter_comp_iterI20cmpWidthExcepFunctorEEEvT_S7_S7_T0_"
  "__ZSt16__introsort_loopIP20GfxFontCIDWidthExcepiN9__gnu_cxx5__ops15_Iter_comp_iterI20cmpWidthExcepFunctorEEEvT_S7_T0_T1_"
  "__ZSt13__adjust_heapIP21GfxFontCIDWidthExcepViS0_N9__gnu_cxx5__ops15_Iter_comp_iterI21cmpWidthExcepVFunctorEEEvT_T0_S8_T1_T2_"
  "__ZSt13__heap_selectIP21GfxFontCIDWidthExcepVN9__gnu_cxx5__ops15_Iter_comp_iterI21cmpWidthExcepVFunctorEEEvT_S7_S7_T0_"
  "__ZSt16__introsort_loopIP21GfxFontCIDWidthExcepViN9__gnu_cxx5__ops15_Iter_comp_iterI21cmpWidthExcepVFunctorEEEvT_S7_T0_T1_"
  "__ZN10GfxCIDFontC2EP4XRefPKc3RefP9GooString11GfxFontTypeS4_P4Dict"
  "__ZN10GfxCIDFontC1EP4XRefPKc3RefP9GooString11GfxFontTypeS4_P4Dict"
  "__ZN7GfxFont8makeFontEP4XRefPKc3RefP4Dict"
  "__ZN11GfxFontDictC2EP4XRefP3RefP4Dict"
  "__ZN11GfxFontDictC1EP4XRefP3RefP4Dict"
  "__ZTS7GfxFont"
  "__ZTI7GfxFont"
  "__ZTS11Gfx8BitFont"
  "__ZTI11Gfx8BitFont"
  "__ZTS10GfxCIDFont"
  "__ZTI10GfxCIDFont"
  "__ZN13GfxColorSpace13useGetRGBLineEv"
  "__ZN13GfxColorSpace14useGetGrayLineEv"
  "__ZN13GfxColorSpace14useGetCMYKLineEv"
  "__ZN13GfxColorSpace17useGetDeviceNLineEv"
  "__ZN23GfxDeviceGrayColorSpace7getModeEv"
  "__ZN23GfxDeviceGrayColorSpace13useGetRGBLineEv"
  "__ZN23GfxDeviceGrayColorSpace14useGetGrayLineEv"
  "__ZN23GfxDeviceGrayColorSpace14useGetCMYKLineEv"
  "__ZN23GfxDeviceGrayColorSpace17useGetDeviceNLineEv"
  "__ZN23GfxDeviceGrayColorSpace9getNCompsEv"
  "__ZN20GfxCalGrayColorSpace7getModeEv"
  "__ZN20GfxCalGrayColorSpace9getNCompsEv"
  "__ZN22GfxDeviceRGBColorSpace7getModeEv"
  "__ZN22GfxDeviceRGBColorSpace13useGetRGBLineEv"
  "__ZN22GfxDeviceRGBColorSpace14useGetGrayLineEv"
  "__ZN22GfxDeviceRGBColorSpace14useGetCMYKLineEv"
  "__ZN22GfxDeviceRGBColorSpace17useGetDeviceNLineEv"
  "__ZN22GfxDeviceRGBColorSpace9getNCompsEv"
  "__ZN19GfxCalRGBColorSpace7getModeEv"
  "__ZN19GfxCalRGBColorSpace9getNCompsEv"
  "__ZN23GfxDeviceCMYKColorSpace7getModeEv"
  "__ZN23GfxDeviceCMYKColorSpace13useGetRGBLineEv"
  "__ZN23GfxDeviceCMYKColorSpace14useGetCMYKLineEv"
  "__ZN23GfxDeviceCMYKColorSpace17useGetDeviceNLineEv"
  "__ZN23GfxDeviceCMYKColorSpace9getNCompsEv"
  "__ZN16GfxLabColorSpace7getModeEv"
  "__ZN16GfxLabColorSpace9getNCompsEv"
  "__ZN21GfxICCBasedColorSpace7getModeEv"
  "__ZN21GfxICCBasedColorSpace9getNCompsEv"
  "__ZN20GfxIndexedColorSpace7getModeEv"
  "__ZN20GfxIndexedColorSpace13useGetRGBLineEv"
  "__ZN20GfxIndexedColorSpace14useGetCMYKLineEv"
  "__ZN20GfxIndexedColorSpace17useGetDeviceNLineEv"
  "__ZN20GfxIndexedColorSpace9getNCompsEv"
  "__ZN20GfxIndexedColorSpace13createMappingEP7GooListi"
  "__ZN23GfxSeparationColorSpace7getModeEv"
  "__ZN23GfxSeparationColorSpace9getNCompsEv"
  "__ZN23GfxSeparationColorSpace12isNonMarkingEv"
  "__ZN20GfxDeviceNColorSpace7getModeEv"
  "__ZN20GfxDeviceNColorSpace9getNCompsEv"
  "__ZN20GfxDeviceNColorSpace12isNonMarkingEv"
  "__ZN20GfxPatternColorSpace7getModeEv"
  "__ZN20GfxPatternColorSpace9getNCompsEv"
  "__ZN13GfxColorSpace13createMappingEP7GooListi"
  "__ZN13GfxColorSpace16getDefaultRangesEPdS0_i"
  "__ZN23GfxDeviceGrayColorSpaceD2Ev"
  "__ZN23GfxDeviceGrayColorSpaceD1Ev"
  "__ZN23GfxDeviceGrayColorSpace7getGrayEP8GfxColorPi"
  "__ZN23GfxDeviceGrayColorSpace6getRGBEP8GfxColorP6GfxRGB"
  "__ZN23GfxDeviceGrayColorSpace10getRGBLineEPhPji"
  "__ZN23GfxDeviceGrayColorSpace10getRGBLineEPhS0_i"
  "__ZN23GfxDeviceGrayColorSpace11getRGBXLineEPhS0_i"
  "__ZN23GfxDeviceGrayColorSpace11getCMYKLineEPhS0_i"
  "__ZN23GfxDeviceGrayColorSpace14getDeviceNLineEPhS0_i"
  "__ZN23GfxDeviceGrayColorSpace7getCMYKEP8GfxColorP7GfxCMYK"
  "__ZN23GfxDeviceGrayColorSpace10getDeviceNEP8GfxColorS1_"
  "__ZN23GfxDeviceGrayColorSpace15getDefaultColorEP8GfxColor"
  "__ZN20GfxCalGrayColorSpace10getDeviceNEP8GfxColorS1_"
  "__ZN20GfxCalGrayColorSpace15getDefaultColorEP8GfxColor"
  "__ZN22GfxDeviceRGBColorSpaceD2Ev"
  "__ZN22GfxDeviceRGBColorSpaceD1Ev"
  "__ZN22GfxDeviceRGBColorSpace7getGrayEP8GfxColorPi"
  "__ZN22GfxDeviceRGBColorSpace11getGrayLineEPhS0_i"
  "__ZN22GfxDeviceRGBColorSpace6getRGBEP8GfxColorP6GfxRGB"
  "__ZN22GfxDeviceRGBColorSpace10getRGBLineEPhPji"
  "__ZN22GfxDeviceRGBColorSpace10getRGBLineEPhS0_i"
  "__ZN22GfxDeviceRGBColorSpace11getRGBXLineEPhS0_i"
  "__ZN22GfxDeviceRGBColorSpace11getCMYKLineEPhS0_i"
  "__ZN22GfxDeviceRGBColorSpace14getDeviceNLineEPhS0_i"
  "__ZN22GfxDeviceRGBColorSpace7getCMYKEP8GfxColorP7GfxCMYK"
  "__ZN22GfxDeviceRGBColorSpace10getDeviceNEP8GfxColorS1_"
  "__ZN22GfxDeviceRGBColorSpace15getDefaultColorEP8GfxColor"
  "__ZN19GfxCalRGBColorSpace10getDeviceNEP8GfxColorS1_"
  "__ZN19GfxCalRGBColorSpace15getDefaultColorEP8GfxColor"
  "__ZN23GfxDeviceCMYKColorSpaceD2Ev"
  "__ZN23GfxDeviceCMYKColorSpaceD1Ev"
  "__ZN23GfxDeviceCMYKColorSpace7getGrayEP8GfxColorPi"
  "__ZN23GfxDeviceCMYKColorSpace11getCMYKLineEPhS0_i"
  "__ZN23GfxDeviceCMYKColorSpace14getDeviceNLineEPhS0_i"
  "__ZN23GfxDeviceCMYKColorSpace7getCMYKEP8GfxColorP7GfxCMYK"
  "__ZN23GfxDeviceCMYKColorSpace10getDeviceNEP8GfxColorS1_"
  "__ZN23GfxDeviceCMYKColorSpace15getDefaultColorEP8GfxColor"
  "__ZN16GfxLabColorSpace10getDeviceNEP8GfxColorS1_"
  "__ZN16GfxLabColorSpace16getDefaultRangesEPdS0_i"
  "__ZNK24GfxICCBasedColorSpaceKeyeqERK15PopplerCacheKey"
  "__ZN21GfxICCBasedColorSpace10getDeviceNEP8GfxColorS1_"
  "__ZN21GfxICCBasedColorSpace15getDefaultColorEP8GfxColor"
  "__ZN21GfxICCBasedColorSpace16getDefaultRangesEPdS0_i"
  "__ZN20GfxIndexedColorSpace15getDefaultColorEP8GfxColor"
  "__ZN20GfxIndexedColorSpace16getDefaultRangesEPdS0_i"
  "__ZN23GfxSeparationColorSpace15getDefaultColorEP8GfxColor"
  "__ZN20GfxDeviceNColorSpace7getGrayEP8GfxColorPi"
  "__ZN20GfxDeviceNColorSpace6getRGBEP8GfxColorP6GfxRGB"
  "__ZN20GfxDeviceNColorSpace7getCMYKEP8GfxColorP7GfxCMYK"
  "__ZN20GfxDeviceNColorSpace15getDefaultColorEP8GfxColor"
  "__ZN20GfxPatternColorSpaceD2Ev"
  "__ZTV20GfxPatternColorSpace"
  "__ZN20GfxPatternColorSpaceD1Ev"
  "__ZN20GfxPatternColorSpace7getGrayEP8GfxColorPi"
  "__ZN20GfxPatternColorSpace6getRGBEP8GfxColorP6GfxRGB"
  "__ZN20GfxPatternColorSpace7getCMYKEP8GfxColorP7GfxCMYK"
  "__ZN20GfxPatternColorSpace10getDeviceNEP8GfxColorS1_"
  "__ZN20GfxPatternColorSpace15getDefaultColorEP8GfxColor"
  "__ZN17GfxShadingPatternD2Ev"
  "__ZTV17GfxShadingPattern"
  "__ZN17GfxShadingPatternD1Ev"
  "__ZN18GfxFunctionShadingD2Ev"
  "__ZTV18GfxFunctionShading"
  "__ZTV10GfxShading"
  "__ZN18GfxFunctionShadingD1Ev"
  "__ZN15GfxAxialShading17getParameterRangeEPdS0_dddd"
  "__ZN15GfxAxialShading11getDistanceEdd"
  "__ZN16GfxRadialShading11getDistanceEdd"
  "__ZN13GfxColorSpace10getRGBLineEPhPji"
  "__ZN13GfxColorSpace10getRGBLineEPhS0_i"
  "__ZN13GfxColorSpace11getRGBXLineEPhS0_i"
  "__ZN13GfxColorSpace11getCMYKLineEPhS0_i"
  "__ZN13GfxColorSpace14getDeviceNLineEPhS0_i"
  "__ZN13GfxColorSpace11getGrayLineEPhS0_i"
  "__ZN23GfxDeviceGrayColorSpace4copyEv"
  "__ZTV23GfxDeviceGrayColorSpace"
  "__ZN20GfxCalGrayColorSpace4copyEv"
  "__ZTV20GfxCalGrayColorSpace"
  "__ZN22GfxDeviceRGBColorSpace4copyEv"
  "__ZTV22GfxDeviceRGBColorSpace"
  "__ZN23GfxDeviceCMYKColorSpace4copyEv"
  "__ZTV23GfxDeviceCMYKColorSpace"
  "__ZN16GfxLabColorSpace4copyEv"
  "__ZTV16GfxLabColorSpace"
  "__ZN20GfxPatternColorSpace4copyEv"
  "__ZN17GfxShadingPattern4copyEv"
  "__ZN23GfxDeviceGrayColorSpaceD0Ev"
  "__ZN20GfxCalGrayColorSpaceD2Ev"
  "__ZN20GfxCalGrayColorSpaceD1Ev"
  "__ZN20GfxCalGrayColorSpaceD0Ev"
  "__ZN22GfxDeviceRGBColorSpaceD0Ev"
  "__ZN19GfxCalRGBColorSpaceD2Ev"
  "__ZTV19GfxCalRGBColorSpace"
  "__ZN19GfxCalRGBColorSpaceD1Ev"
  "__ZN19GfxCalRGBColorSpaceD0Ev"
  "__ZN23GfxDeviceCMYKColorSpaceD0Ev"
  "__ZN16GfxLabColorSpaceD2Ev"
  "__ZN16GfxLabColorSpaceD1Ev"
  "__ZN16GfxLabColorSpaceD0Ev"
  "__ZN20GfxPatternColorSpaceD0Ev"
  "__ZN17GfxShadingPatternD0Ev"
  "__ZN18GfxFunctionShadingD0Ev"
  "__ZN16GfxTilingPatternD2Ev"
  "__ZTV16GfxTilingPattern"
  "__ZN16GfxTilingPatternD1Ev"
  "__ZN16GfxTilingPatternD0Ev"
  "__ZN23GfxDeviceGrayColorSpace11getGrayLineEPhS0_i"
  "__ZN20GfxIndexedColorSpaceD2Ev"
  "__ZTV20GfxIndexedColorSpace"
  "__ZN20GfxIndexedColorSpaceD1Ev"
  "__ZN20GfxIndexedColorSpaceD0Ev"
  "__ZN23GfxSeparationColorSpaceD2Ev"
  "__ZTV23GfxSeparationColorSpace"
  "__ZN23GfxSeparationColorSpaceD1Ev"
  "__ZN23GfxSeparationColorSpaceD0Ev"
  "__ZN25GfxGouraudTriangleShadingD2Ev"
  "__ZTV25GfxGouraudTriangleShading"
  "__ZN25GfxGouraudTriangleShadingD1Ev"
  "__ZN25GfxGouraudTriangleShadingD0Ev"
  "__ZN19GfxPatchMeshShadingD2Ev"
  "__ZTV19GfxPatchMeshShading"
  "__ZN19GfxPatchMeshShadingD1Ev"
  "__ZN19GfxPatchMeshShadingD0Ev"
  "__ZN24GfxICCBasedColorSpaceKeyD1Ev"
  "__ZTV24GfxICCBasedColorSpaceKey"
  "__ZN24GfxICCBasedColorSpaceKeyD0Ev"
  "__ZN23GfxSeparationColorSpace4copyEv"
  "__ZN20GfxIndexedColorSpace10getRGBLineEPhPji"
  "__ZN20GfxIndexedColorSpace10getRGBLineEPhS0_i"
  "__ZN20GfxIndexedColorSpace11getRGBXLineEPhS0_i"
  "__ZN20GfxIndexedColorSpace11getCMYKLineEPhS0_i"
  "__ZN20GfxIndexedColorSpace14getDeviceNLineEPhS0_i"
  "__ZN21GfxICCBasedColorSpace14getDeviceNLineEPhS0_i"
  "__ZN16GfxLabColorSpace15getDefaultColorEP8GfxColor"
  "__ZN21GfxICCBasedColorSpace13useGetRGBLineEv"
  "__ZN21GfxICCBasedColorSpace14useGetCMYKLineEv"
  "__ZN21GfxICCBasedColorSpace17useGetDeviceNLineEv"
  "__ZN23GfxSeparationColorSpace10getDeviceNEP8GfxColorS1_"
  "__ZN20GfxDeviceNColorSpace10getDeviceNEP8GfxColorS1_"
  "__ZN23GfxSeparationColorSpace7getGrayEP8GfxColorPi"
  "__ZN23GfxSeparationColorSpace6getRGBEP8GfxColorP6GfxRGB"
  "__ZN23GfxSeparationColorSpace7getCMYKEP8GfxColorP7GfxCMYK"
  "__ZN23GfxSeparationColorSpace13createMappingEP7GooListi"
  "__ZN21GfxICCBasedColorSpace10getRGBLineEPhPji"
  "__ZN21GfxICCBasedColorSpace11getRGBXLineEPhS0_i"
  "__ZN21GfxICCBasedColorSpace11getCMYKLineEPhS0_i"
  "__ZN20GfxDeviceNColorSpaceD2Ev"
  "__ZTV20GfxDeviceNColorSpace"
  "__ZN20GfxDeviceNColorSpaceD1Ev"
  "__ZN20GfxDeviceNColorSpaceD0Ev"
  "__ZN16GfxRadialShading17getParameterRangeEPdS0_dddd"
  "__ZN23GfxDeviceCMYKColorSpace6getRGBEP8GfxColorP6GfxRGB"
  "__ZN23GfxDeviceCMYKColorSpace11getRGBXLineEPhS0_i"
  "__ZN23GfxDeviceCMYKColorSpace10getRGBLineEPhS0_i"
  "__ZN23GfxDeviceCMYKColorSpace10getRGBLineEPhPji"
  "__ZN21GfxICCBasedColorSpace10getRGBLineEPhS0_i"
  "__ZNK6Matrix8invertToEPS_"
  "__ZN6Matrix9translateEdd"
  "__ZN6Matrix5scaleEdd"
  "__ZNK6Matrix9transformEddPdS0_"
  "__ZNK6Matrix4normEv"
  "__ZN17GfxColorTransform11doTransformEPvS0_j"
  "__ZN17GfxColorTransformC2EPvijj"
  "__ZN17GfxColorTransformC1EPvijj"
  "__ZN17GfxColorTransformD2Ev"
  "__ZN17GfxColorTransformD1Ev"
  "__ZN17GfxColorTransform3refEv"
  "__ZN17GfxColorTransform5unrefEv"
  "__ZN13GfxColorSpace17setDisplayProfileEPv"
  "__ZN13GfxColorSpace21setDisplayProfileNameEP9GooString"
  "__ZN13GfxColorSpace13getRGBProfileEv"
  "__ZN13GfxColorSpace17getDisplayProfileEv"
  "__ZN13GfxColorSpaceC2Ev"
  "__ZTV13GfxColorSpace"
  "__ZN13GfxColorSpaceC1Ev"
  "__ZN13GfxColorSpaceD2Ev"
  "__ZN13GfxColorSpaceD1Ev"
  "__ZN13GfxColorSpaceD0Ev"
  "__ZN13GfxColorSpace21getNumColorSpaceModesEv"
  "__ZN13GfxColorSpace21getColorSpaceModeNameEi"
  "__ZN13GfxColorSpace18setupColorProfilesEv"
  "__ZN23GfxDeviceGrayColorSpaceC2Ev"
  "__ZN23GfxDeviceGrayColorSpaceC1Ev"
  "__ZN20GfxCalGrayColorSpaceC2Ev"
  "__ZN20GfxCalGrayColorSpaceC1Ev"
  "__ZN20GfxCalGrayColorSpace6getXYZEP8GfxColorPdS2_S2_"
  "__ZN20GfxCalGrayColorSpace7getGrayEP8GfxColorPi"
  "__ZN20GfxCalGrayColorSpace6getRGBEP8GfxColorP6GfxRGB"
  "__ZN20GfxCalGrayColorSpace7getCMYKEP8GfxColorP7GfxCMYK"
  "__ZN22GfxDeviceRGBColorSpaceC2Ev"
  "__ZN22GfxDeviceRGBColorSpaceC1Ev"
  "__ZN19GfxCalRGBColorSpaceC2Ev"
  "__ZN19GfxCalRGBColorSpaceC1Ev"
  "__ZN19GfxCalRGBColorSpace4copyEv"
  "__ZN19GfxCalRGBColorSpace6getXYZEP8GfxColorPdS2_S2_"
  "__ZN19GfxCalRGBColorSpace7getGrayEP8GfxColorPi"
  "__ZN19GfxCalRGBColorSpace6getRGBEP8GfxColorP6GfxRGB"
  "__ZN19GfxCalRGBColorSpace7getCMYKEP8GfxColorP7GfxCMYK"
  "__ZN23GfxDeviceCMYKColorSpaceC2Ev"
  "__ZN23GfxDeviceCMYKColorSpaceC1Ev"
  "__ZN16GfxLabColorSpaceC2Ev"
  "__ZN16GfxLabColorSpaceC1Ev"
  "__ZN16GfxLabColorSpace6getXYZEP8GfxColorPdS2_S2_"
  "__ZN16GfxLabColorSpace7getGrayEP8GfxColorPi"
  "__ZN16GfxLabColorSpace6getRGBEP8GfxColorP6GfxRGB"
  "__ZN16GfxLabColorSpace7getCMYKEP8GfxColorP7GfxCMYK"
  "__ZN21GfxICCBasedColorSpaceC2EiP13GfxColorSpaceP3Ref"
  "__ZTV21GfxICCBasedColorSpace"
  "__ZN21GfxICCBasedColorSpaceC1EiP13GfxColorSpaceP3Ref"
  "__ZN21GfxICCBasedColorSpace4copyEv"
  "__ZN20GfxIndexedColorSpaceC2EP13GfxColorSpacei"
  "__ZN20GfxIndexedColorSpaceC1EP13GfxColorSpacei"
  "__ZN20GfxIndexedColorSpace4copyEv"
  "__ZN20GfxIndexedColorSpace14mapColorToBaseEP8GfxColorS1_"
  "__ZN20GfxIndexedColorSpace7getGrayEP8GfxColorPi"
  "__ZN20GfxIndexedColorSpace6getRGBEP8GfxColorP6GfxRGB"
  "__ZN20GfxIndexedColorSpace7getCMYKEP8GfxColorP7GfxCMYK"
  "__ZN20GfxIndexedColorSpace10getDeviceNEP8GfxColorS1_"
  "__ZN23GfxSeparationColorSpaceC2EP9GooStringP13GfxColorSpaceP8Function"
  "__ZN23GfxSeparationColorSpaceC1EP9GooStringP13GfxColorSpaceP8Function"
  "__ZN20GfxDeviceNColorSpace13createMappingEP7GooListi"
  "__ZN23GfxSeparationColorSpaceC2EP9GooStringP13GfxColorSpaceP8FunctionbjPi"
  "__ZN23GfxSeparationColorSpaceC1EP9GooStringP13GfxColorSpaceP8FunctionbjPi"
  "__ZN20GfxDeviceNColorSpaceC2EiPP9GooStringP13GfxColorSpaceP8FunctionP7GooList"
  "__ZN20GfxDeviceNColorSpaceC1EiPP9GooStringP13GfxColorSpaceP8FunctionP7GooList"
  "__ZN20GfxDeviceNColorSpaceC2EiPP9GooStringP13GfxColorSpaceP8FunctionP7GooListPibj"
  "__ZN20GfxDeviceNColorSpaceC1EiPP9GooStringP13GfxColorSpaceP8FunctionP7GooListPibj"
  "__ZN20GfxDeviceNColorSpace4copyEv"
  "__ZN20GfxPatternColorSpaceC2EP13GfxColorSpace"
  "__ZN20GfxPatternColorSpaceC1EP13GfxColorSpace"
  "__ZN10GfxPatternC2Ei"
  "__ZTV10GfxPattern"
  "__ZN10GfxPatternC1Ei"
  "__ZN10GfxPatternD2Ev"
  "__ZN10GfxPatternD1Ev"
  "__ZN10GfxPatternD0Ev"
  "__ZN16GfxTilingPatternC2EiiPdddP6ObjectS0_S2_"
  "__ZN16GfxTilingPatternC1EiiPdddP6ObjectS0_S2_"
  "__ZN16GfxTilingPattern4copyEv"
  "__ZN16GfxTilingPattern5parseEP6Object"
  "__ZN17GfxShadingPatternC2EP10GfxShadingPd"
  "__ZN17GfxShadingPatternC1EP10GfxShadingPd"
  "__ZN10GfxShadingC2Ei"
  "__ZN10GfxShadingC1Ei"
  "__ZN10GfxShadingC2EPS_"
  "__ZN10GfxShadingC1EPS_"
  "__ZN10GfxShadingD2Ev"
  "__ZN10GfxShadingD1Ev"
  "__ZN10GfxShadingD0Ev"
  "__ZN18GfxFunctionShadingC2EddddPdPP8Functioni"
  "__ZN18GfxFunctionShadingC1EddddPdPP8Functioni"
  "__ZN18GfxFunctionShadingC2EPS_"
  "__ZN18GfxFunctionShadingC1EPS_"
  "__ZN18GfxFunctionShading4copyEv"
  "__ZN18GfxFunctionShading8getColorEddP8GfxColor"
  "__ZN20GfxUnivariateShadingC2EiddPP8Functionibb"
  "__ZTV20GfxUnivariateShading"
  "__ZN20GfxUnivariateShadingC1EiddPP8Functionibb"
  "__ZN20GfxUnivariateShadingC2EPS_"
  "__ZN20GfxUnivariateShadingC1EPS_"
  "__ZN20GfxUnivariateShadingD2Ev"
  "__ZN20GfxUnivariateShadingD1Ev"
  "__ZN15GfxAxialShadingD2Ev"
  "__ZTV15GfxAxialShading"
  "__ZN15GfxAxialShadingD1Ev"
  "__ZN15GfxAxialShadingD0Ev"
  "__ZN16GfxRadialShadingD2Ev"
  "__ZTV16GfxRadialShading"
  "__ZN16GfxRadialShadingD1Ev"
  "__ZN16GfxRadialShadingD0Ev"
  "__ZN20GfxUnivariateShadingD0Ev"
  "__ZN20GfxUnivariateShading8getColorEdP8GfxColor"
  "__ZN20GfxUnivariateShading10setupCacheEPK6Matrixdddd"
  "__ZN15GfxAxialShadingC2EddddddPP8Functionibb"
  "__ZN15GfxAxialShadingC1EddddddPP8Functionibb"
  "__ZN15GfxAxialShadingC2EPS_"
  "__ZN15GfxAxialShadingC1EPS_"
  "__ZN15GfxAxialShading4copyEv"
  "__ZN16GfxRadialShadingC2EddddddddPP8Functionibb"
  "__ZN16GfxRadialShadingC1EddddddddPP8Functionibb"
  "__ZN16GfxRadialShadingC2EPS_"
  "__ZN16GfxRadialShadingC1EPS_"
  "__ZN16GfxRadialShading4copyEv"
  "__ZN16GfxShadingBitBufC2EP6Stream"
  "__ZN16GfxShadingBitBufC1EP6Stream"
  "__ZN16GfxShadingBitBufD2Ev"
  "__ZN16GfxShadingBitBufD1Ev"
  "__ZN16GfxShadingBitBuf7getBitsEiPj"
  "__ZN16GfxShadingBitBuf9flushBitsEv"
  "__ZN25GfxGouraudTriangleShadingC2EiP16GfxGouraudVertexiPA3_iiPP8Functioni"
  "__ZN25GfxGouraudTriangleShadingC1EiP16GfxGouraudVertexiPA3_iiPP8Functioni"
  "__ZN25GfxGouraudTriangleShadingC2EPS_"
  "__ZN25GfxGouraudTriangleShadingC1EPS_"
  "__ZN25GfxGouraudTriangleShading4copyEv"
  "__ZN25GfxGouraudTriangleShading11getTriangleEiPdS0_P8GfxColorS0_S0_S2_S0_S0_S2_"
  "__ZN25GfxGouraudTriangleShading21getParameterizedColorEdP8GfxColor"
  "__ZN25GfxGouraudTriangleShading11getTriangleEiPdS0_S0_S0_S0_S0_S0_S0_S0_"
  "__ZN19GfxPatchMeshShadingC2EiP8GfxPatchiPP8Functioni"
  "__ZN19GfxPatchMeshShadingC1EiP8GfxPatchiPP8Functioni"
  "__ZN19GfxPatchMeshShadingC2EPS_"
  "__ZN19GfxPatchMeshShadingC1EPS_"
  "__ZN19GfxPatchMeshShading4copyEv"
  "__ZN19GfxPatchMeshShading21getParameterizedColorEdP8GfxColor"
  "__ZN16GfxImageColorMapC2EiP6ObjectP13GfxColorSpace"
  "__ZN16GfxImageColorMapC1EiP6ObjectP13GfxColorSpace"
  "__ZN16GfxImageColorMapC2EPS_"
  "__ZN16GfxImageColorMapC1EPS_"
  "__ZN16GfxImageColorMapD2Ev"
  "__ZN16GfxImageColorMapD1Ev"
  "__ZN16GfxImageColorMap7getGrayEPhPi"
  "__ZN16GfxImageColorMap6getRGBEPhP6GfxRGB"
  "__ZN16GfxImageColorMap11getGrayLineEPhS0_i"
  "__ZN16GfxImageColorMap10getRGBLineEPhPji"
  "__ZN16GfxImageColorMap10getRGBLineEPhS0_i"
  "__ZN16GfxImageColorMap11getRGBXLineEPhS0_i"
  "__ZN16GfxImageColorMap7getCMYKEPhP7GfxCMYK"
  "__ZN16GfxImageColorMap11getCMYKLineEPhS0_i"
  "__ZN16GfxImageColorMap10getDeviceNEPhP8GfxColor"
  "__ZN16GfxImageColorMap14getDeviceNLineEPhS0_i"
  "__ZN16GfxImageColorMap8getColorEPhP8GfxColor"
  "__ZN10GfxSubpathC2Edd"
  "__ZN10GfxSubpathC1Edd"
  "__ZN10GfxSubpathD2Ev"
  "__ZN10GfxSubpathD1Ev"
  "__ZN10GfxSubpathC2EPS_"
  "__ZN10GfxSubpathC1EPS_"
  "__ZN10GfxSubpath6lineToEdd"
  "__ZN10GfxSubpath7curveToEdddddd"
  "__ZN10GfxSubpath5closeEv"
  "__ZN10GfxSubpath6offsetEdd"
  "__ZN7GfxPathC2Ev"
  "__ZN7GfxPathC1Ev"
  "__ZN7GfxPathD2Ev"
  "__ZN7GfxPathD1Ev"
  "__ZN7GfxPathC2EbddPP10GfxSubpathii"
  "__ZN7GfxPathC1EbddPP10GfxSubpathii"
  "__ZN7GfxPath6moveToEdd"
  "__ZN7GfxPath6lineToEdd"
  "__ZN7GfxPath7curveToEdddddd"
  "__ZN7GfxPath5closeEv"
  "__ZN7GfxPath6appendEPS_"
  "__ZN7GfxPath6offsetEdd"
  "__ZN8GfxState20ReusablePathIteratorC2EP7GfxPath"
  "__ZN8GfxState20ReusablePathIteratorC1EP7GfxPath"
  "__ZNK8GfxState20ReusablePathIterator5isEndEv"
  "__ZN8GfxState20ReusablePathIterator4nextEv"
  "__ZN8GfxState20ReusablePathIterator8setCoordEdd"
  "__ZN8GfxState20ReusablePathIterator5resetEv"
  "__ZN8GfxStateC2EddP12PDFRectangleib"
  "__ZN8GfxStateC1EddP12PDFRectangleib"
  "__ZN8GfxStateD2Ev"
  "__ZN8GfxStateD1Ev"
  "__ZN8GfxStateC2EPS_b"
  "__ZN8GfxStateC1EPS_b"
  "__ZN8GfxState17setDisplayProfileEPv"
  "__ZN8GfxState23getXYZ2DisplayTransformEv"
  "__ZN20GfxCalGrayColorSpace5parseEP5ArrayP8GfxState"
  "__ZN19GfxCalRGBColorSpace5parseEP5ArrayP8GfxState"
  "__ZN16GfxLabColorSpace5parseEP5ArrayP8GfxState"
  "__ZN8GfxState7setPathEP7GfxPath"
  "__ZN8GfxState15getUserClipBBoxEPdS0_S0_S0_"
  "__ZN8GfxState14transformWidthEd"
  "__ZN8GfxState22getTransformedFontSizeEv"
  "__ZN8GfxState15getFontTransMatEPdS0_S0_S0_"
  "__ZN8GfxState6setCTMEdddddd"
  "__ZN8GfxState9concatCTMEdddddd"
  "__ZN8GfxState15shiftCTMAndClipEdd"
  "__ZN8GfxState17setFillColorSpaceEP13GfxColorSpace"
  "__ZN8GfxState19setStrokeColorSpaceEP13GfxColorSpace"
  "__ZN8GfxState14setFillPatternEP10GfxPattern"
  "__ZN8GfxState16setStrokePatternEP10GfxPattern"
  "__ZN8GfxState7setFontEP7GfxFontd"
  "__ZN8GfxState11setTransferEPP8Function"
  "__ZN8GfxState11setLineDashEPdid"
  "__ZN8GfxState9clearPathEv"
  "__ZN8GfxState4clipEv"
  "__ZN8GfxState16clipToStrokePathEv"
  "__ZN8GfxState10clipToRectEdddd"
  "__ZN8GfxState9textShiftEdd"
  "__ZN8GfxState5shiftEdd"
  "__ZN8GfxState4saveEv"
  "__ZN8GfxState7restoreEv"
  "__ZN8GfxState14parseBlendModeEP6ObjectP12GfxBlendMode"
  "__ZNSt8_Rb_treeIjSt4pairIKjjESt10_Select1stIS2_ESt4lessIjESaIS2_EE8_M_eraseEPSt13_Rb_tree_nodeIS2_E"
  "__ZN21GfxICCBasedColorSpaceD2Ev"
  "__ZN21GfxICCBasedColorSpaceD1Ev"
  "__ZN21GfxICCBasedColorSpaceD0Ev"
  "__ZN25GfxICCBasedColorSpaceItemD1Ev"
  "__ZTV25GfxICCBasedColorSpaceItem"
  "__ZN21GfxICCBasedColorSpace5parseEP5ArrayP9OutputDevP8GfxStatei"
  "__ZN13GfxColorSpace5parseEP12GfxResourcesP6ObjectP9OutputDevP8GfxStatei"
  "__ZN23GfxSeparationColorSpace5parseEP12GfxResourcesP5ArrayP9OutputDevP8GfxStatei"
  "__ZN20GfxIndexedColorSpace5parseEP12GfxResourcesP5ArrayP9OutputDevP8GfxStatei"
  "__ZN20GfxDeviceNColorSpace5parseEP12GfxResourcesP5ArrayP9OutputDevP8GfxStatei"
  "__ZN20GfxPatternColorSpace5parseEP12GfxResourcesP5ArrayP9OutputDevP8GfxStatei"
  "__ZN10GfxShading4initEP12GfxResourcesP4DictP9OutputDevP8GfxState"
  "__ZN18GfxFunctionShading5parseEP12GfxResourcesP4DictP9OutputDevP8GfxState"
  "__ZN15GfxAxialShading5parseEP12GfxResourcesP4DictP9OutputDevP8GfxState"
  "__ZN16GfxRadialShading5parseEP12GfxResourcesP4DictP9OutputDevP8GfxState"
  "__ZN25GfxGouraudTriangleShading5parseEP12GfxResourcesiP4DictP6StreamP9OutputDevP8GfxState"
  "__ZN19GfxPatchMeshShading5parseEP12GfxResourcesiP4DictP6StreamP9OutputDevP8GfxState"
  "__ZN10GfxShading5parseEP12GfxResourcesP6ObjectP9OutputDevP8GfxState"
  "__ZN17GfxShadingPattern5parseEP12GfxResourcesP6ObjectP9OutputDevP8GfxState"
  "__ZN10GfxPattern5parseEP12GfxResourcesP6ObjectP9OutputDevP8GfxState"
  "__ZN25GfxICCBasedColorSpaceItemD0Ev"
  "__ZNSt8_Rb_treeIjSt4pairIKjjESt10_Select1stIS2_ESt4lessIjESaIS2_EE4findERS1_"
  "__ZNSt8_Rb_treeIjSt4pairIKjjESt10_Select1stIS2_ESt4lessIjESaIS2_EE16_M_insert_uniqueERKS2_"
  "__ZN21GfxICCBasedColorSpace7getGrayEP8GfxColorPi"
  "__ZN21GfxICCBasedColorSpace6getRGBEP8GfxColorP6GfxRGB"
  "__ZN21GfxICCBasedColorSpace7getCMYKEP8GfxColorP7GfxCMYK"
  "__ZTS13GfxColorSpace"
  "__ZTI13GfxColorSpace"
  "__ZTS23GfxDeviceGrayColorSpace"
  "__ZTI23GfxDeviceGrayColorSpace"
  "__ZTS20GfxCalGrayColorSpace"
  "__ZTI20GfxCalGrayColorSpace"
  "__ZTS22GfxDeviceRGBColorSpace"
  "__ZTI22GfxDeviceRGBColorSpace"
  "__ZTS19GfxCalRGBColorSpace"
  "__ZTI19GfxCalRGBColorSpace"
  "__ZTS23GfxDeviceCMYKColorSpace"
  "__ZTI23GfxDeviceCMYKColorSpace"
  "__ZTS16GfxLabColorSpace"
  "__ZTI16GfxLabColorSpace"
  "__ZTS21GfxICCBasedColorSpace"
  "__ZTI21GfxICCBasedColorSpace"
  "__ZTS20GfxIndexedColorSpace"
  "__ZTI20GfxIndexedColorSpace"
  "__ZTS23GfxSeparationColorSpace"
  "__ZTI23GfxSeparationColorSpace"
  "__ZTS20GfxDeviceNColorSpace"
  "__ZTI20GfxDeviceNColorSpace"
  "__ZTS20GfxPatternColorSpace"
  "__ZTI20GfxPatternColorSpace"
  "__ZTS10GfxPattern"
  "__ZTI10GfxPattern"
  "__ZTS16GfxTilingPattern"
  "__ZTI16GfxTilingPattern"
  "__ZTS17GfxShadingPattern"
  "__ZTI17GfxShadingPattern"
  "__ZTS10GfxShading"
  "__ZTI10GfxShading"
  "__ZTS20GfxUnivariateShading"
  "__ZTI20GfxUnivariateShading"
  "__ZTS18GfxFunctionShading"
  "__ZTI18GfxFunctionShading"
  "__ZTS15GfxAxialShading"
  "__ZTI15GfxAxialShading"
  "__ZTS16GfxRadialShading"
  "__ZTI16GfxRadialShading"
  "__ZTS25GfxGouraudTriangleShading"
  "__ZTI25GfxGouraudTriangleShading"
  "__ZTS19GfxPatchMeshShading"
  "__ZTI19GfxPatchMeshShading"
  "__ZTI16PopplerCacheItem"
  "__ZTS16PopplerCacheItem"
  "__ZTI15PopplerCacheKey"
  "__ZTS15PopplerCacheKey"
  "__ZTI24GfxICCBasedColorSpaceKey"
  "__ZTS24GfxICCBasedColorSpaceKey"
  "__ZTI25GfxICCBasedColorSpaceItem"
  "__ZTS25GfxICCBasedColorSpaceItem"
  "__ZN13PSFontParam16C2EP9GooStringiS1_S1_"
  "__ZN13PSFontParam16C1EP9GooStringiS1_S1_"
  "__ZN13PSFontParam16D2Ev"
  "__ZN13PSFontParam16D1Ev"
  "__ZN11SysFontInfoC2EP9GooStringbbbbS1_11SysFontTypeiS1_"
  "__ZN11SysFontInfoC1EP9GooStringbbbbS1_11SysFontTypeiS1_"
  "__ZN11SysFontInfoD2Ev"
  "__ZN11SysFontInfoD1Ev"
  "__ZN11SysFontInfo5matchEPS_"
  "__ZN11SysFontInfo5matchEP9GooStringbbbb"
  "__ZN11SysFontInfo5matchEP9GooStringbb"
  "__ZN11SysFontListC2Ev"
  "__ZN11SysFontListC1Ev"
  "__ZN11SysFontListD2Ev"
  "__ZN11SysFontListD1Ev"
  "__ZN11SysFontList4findEP9GooStringbb"
  "__ZN12GlobalParams18parseNameToUnicodeEP9GooString"
  "__ZN12GlobalParams15addCIDToUnicodeEP9GooStringS1_"
  "__ZN12GlobalParams13addUnicodeMapEP9GooStringS1_"
  "__ZN12GlobalParams10addCMapDirEP9GooStringS1_"
  "__ZN12GlobalParams16scanEncodingDirsEv"
  "__ZN12GlobalParamsC2EPKc"
  "__ZN12GlobalParamsC1EPKc"
  "__ZN12GlobalParams11parseYesNo2EPKcPb"
  "__ZN12GlobalParamsD2Ev"
  "__ZN12GlobalParamsD1Ev"
  "__ZN12GlobalParams19getMacRomanCharCodeEPc"
  "__ZN12GlobalParams19mapNameToUnicodeAllEPKc"
  "__ZN12GlobalParams20mapNameToUnicodeTextEPKc"
  "__ZN12GlobalParams21getResidentUnicodeMapEP9GooString"
  "__ZN12GlobalParams17getUnicodeMapFileEP9GooString"
  "__ZN12GlobalParams12findCMapFileEP9GooStringS1_"
  "__ZN12GlobalParams17findToUnicodeFileEP9GooString"
  "__ZN12GlobalParams12findFontFileEP9GooString"
  "__ZN12GlobalParams14setupBaseFontsEPc"
  "__ZN12GlobalParams18findSystemFontFileEP7GfxFontP11SysFontTypePiP9GooStringS6_"
  "__ZN12GlobalParams18findBase14FontFileEP9GooStringP7GfxFont"
  "__ZN12GlobalParams14findCCFontFileEP9GooString"
  "__ZN12GlobalParams18getPSExpandSmallerEv"
  "__ZN12GlobalParams17getPSShrinkLargerEv"
  "__ZN12GlobalParams11getPSCenterEv"
  "__ZN12GlobalParams10getPSLevelEv"
  "__ZN12GlobalParams17getPSResidentFontEP9GooString"
  "__ZN12GlobalParams18getPSResidentFontsEv"
  "__ZN12GlobalParams19getPSResidentFont16EP9GooStringi"
  "__ZN12GlobalParams19getPSResidentFontCCEP9GooStringi"
  "__ZN12GlobalParams19getTextEncodingNameEv"
  "__ZN12GlobalParams10getTextEOLEv"
  "__ZN12GlobalParams17getTextPageBreaksEv"
  "__ZN12GlobalParams20getTextKeepTinyCharsEv"
  "__ZN12GlobalParams17getEnableFreeTypeEv"
  "__ZN12GlobalParams15getStrokeAdjustEv"
  "__ZN12GlobalParams13getScreenTypeEv"
  "__ZN12GlobalParams13getScreenSizeEv"
  "__ZN12GlobalParams18getScreenDotRadiusEv"
  "__ZN12GlobalParams14getScreenGammaEv"
  "__ZN12GlobalParams23getScreenBlackThresholdEv"
  "__ZN12GlobalParams23getScreenWhiteThresholdEv"
  "__ZN12GlobalParams15getMinLineWidthEv"
  "__ZN12GlobalParams22getMapNumericCharNamesEv"
  "__ZN12GlobalParams22getMapUnknownCharNamesEv"
  "__ZN12GlobalParams16getPrintCommandsEv"
  "__ZN12GlobalParams18getProfileCommandsEv"
  "__ZN12GlobalParams11getErrQuietEv"
  "__ZN12GlobalParams15getCIDToUnicodeEP9GooString"
  "__ZN12GlobalParams19getUnicodeToUnicodeEP9GooString"
  "__ZN12GlobalParams14getUnicodeMap2EP9GooString"
  "__ZN12GlobalParams13getUnicodeMapEP9GooString"
  "__ZN12GlobalParams7getCMapEP9GooStringS1_P6Stream"
  "__ZN12GlobalParams15getTextEncodingEv"
  "__ZN12GlobalParams16getEncodingNamesEv"
  "__ZN12GlobalParams11addFontFileEP9GooStringS1_"
  "__ZN12GlobalParams9setPSFileEPc"
  "__ZN12GlobalParams18setPSExpandSmallerEb"
  "__ZN12GlobalParams17setPSShrinkLargerEb"
  "__ZN12GlobalParams11setPSCenterEb"
  "__ZN12GlobalParams10setPSLevelE7PSLevel"
  "__ZN12GlobalParams15setTextEncodingEPc"
  "__ZN12GlobalParams10setTextEOLEPc"
  "__ZN12GlobalParams17setTextPageBreaksEb"
  "__ZN12GlobalParams20setTextKeepTinyCharsEb"
  "__ZN12GlobalParams17setEnableFreeTypeEPc"
  "__ZN12GlobalParams25setDisableFreeTypeHintingEPc"
  "__ZN12GlobalParams15setStrokeAdjustEb"
  "__ZN12GlobalParams13setScreenTypeE10ScreenType"
  "__ZN12GlobalParams13setScreenSizeEi"
  "__ZN12GlobalParams18setScreenDotRadiusEi"
  "__ZN12GlobalParams14setScreenGammaEd"
  "__ZN12GlobalParams23setScreenBlackThresholdEd"
  "__ZN12GlobalParams23setScreenWhiteThresholdEd"
  "__ZN12GlobalParams15setMinLineWidthEd"
  "__ZN12GlobalParams19setOverprintPreviewEb"
  "__ZN12GlobalParams22setMapNumericCharNamesEb"
  "__ZN12GlobalParams22setMapUnknownCharNamesEb"
  "__ZN12GlobalParams16setPrintCommandsEb"
  "__ZN12GlobalParams18setProfileCommandsEb"
  "__ZN12GlobalParams11setErrQuietEb"
  "__ZN12GlobalParams18addSecurityHandlerEP19XpdfSecurityHandler"
  "__ZN12GlobalParams18getSecurityHandlerEPc"
  "__ZN5HintsD2Ev"
  "__ZN5HintsD1Ev"
  "__ZN5Hints13getPageOffsetEi"
  "__ZN5Hints19readPageOffsetTableEP6Stream"
  "__ZN5Hints22readSharedObjectsTableEP6Stream"
  "__ZN5Hints10readTablesEP10BaseStreamP13LinearizationP4XRefP15SecurityHandler"
  "__ZN5HintsC2EP10BaseStreamP13LinearizationP4XRefP15SecurityHandler"
  "__ZN5HintsC1EP10BaseStreamP13LinearizationP4XRefP15SecurityHandler"
  "__ZN5Hints16getPageObjectNumEi"
  "__ZN5Hints13getPageRangesEi"
  "__ZN23JArithmeticDecoderStatsC2Ei"
  "__ZN23JArithmeticDecoderStatsC1Ei"
  "__ZN23JArithmeticDecoderStatsD2Ev"
  "__ZN23JArithmeticDecoderStatsD1Ev"
  "__ZN23JArithmeticDecoderStats4copyEv"
  "__ZN23JArithmeticDecoderStats5resetEv"
  "__ZN23JArithmeticDecoderStats8copyFromEPS_"
  "__ZN23JArithmeticDecoderStats8setEntryEjii"
  "__ZN18JArithmeticDecoderC2Ev"
  "__ZN18JArithmeticDecoderC1Ev"
  "__ZN18JArithmeticDecoderD2Ev"
  "__ZN18JArithmeticDecoderD1Ev"
  "__ZN18JArithmeticDecoder7restartEi"
  "__ZN18JArithmeticDecoder7cleanupEv"
  "__ZN18JArithmeticDecoder6byteInEv"
  "__ZN18JArithmeticDecoder5startEv"
  "__ZN18JArithmeticDecoder9decodeBitEjP23JArithmeticDecoderStats"
  "__ZN18JArithmeticDecoder10decodeByteEjP23JArithmeticDecoderStats"
  "__ZN18JArithmeticDecoder12decodeIntBitEP23JArithmeticDecoderStats"
  "__ZN18JArithmeticDecoder9decodeIntEPiP23JArithmeticDecoderStats"
  "__ZN18JArithmeticDecoder10decodeIAIDEjP23JArithmeticDecoderStats"
  "__ZN11JBIG2Stream7getKindEv"
  "__ZN11JBIG2Stream16getGlobalsStreamEv"
  "__ZN11JBIG2Stream19getGlobalsStreamRefEv"
  "__ZN11JBIG2Stream11hasGetCharsEv"
  "__ZN11JBIG2Bitmap7getTypeEv"
  "__ZN15JBIG2SymbolDict7getTypeEv"
  "__ZN16JBIG2PatternDict7getTypeEv"
  "__ZN14JBIG2CodeTable7getTypeEv"
  "__ZN11JBIG2Stream7getCharEv"
  "__ZN11JBIG2Stream8lookCharEv"
  "__ZN11JBIG2Stream6getPosEv"
  "__ZN11JBIG2Stream8getCharsEiPh"
  "__ZN11JBIG2Stream11getPSFilterEiPKc"
  "__ZN11JBIG2Stream8isBinaryEb"
  "__ZN11JBIG2BitmapD2Ev"
  "__ZTV11JBIG2Bitmap"
  "__ZN11JBIG2BitmapD1Ev"
  "__ZN16JBIG2PatternDictD2Ev"
  "__ZTV16JBIG2PatternDict"
  "__ZN16JBIG2PatternDictD1Ev"
  "__ZN14JBIG2CodeTableD2Ev"
  "__ZTV14JBIG2CodeTable"
  "__ZN14JBIG2CodeTableD1Ev"
  "__ZN11JBIG2BitmapD0Ev"
  "__ZN16JBIG2PatternDictD0Ev"
  "__ZN14JBIG2CodeTableD0Ev"
  "__ZN15JBIG2SymbolDictD2Ev"
  "__ZTV15JBIG2SymbolDict"
  "__ZN15JBIG2SymbolDictD1Ev"
  "__ZN15JBIG2SymbolDictD0Ev"
  "__ZN19JBIG2HuffmanDecoderC2Ev"
  "__ZN19JBIG2HuffmanDecoderC1Ev"
  "__ZN19JBIG2HuffmanDecoderD2Ev"
  "__ZN19JBIG2HuffmanDecoderD1Ev"
  "__ZN19JBIG2HuffmanDecoder5resetEv"
  "__ZN19JBIG2HuffmanDecoder8readBitsEj"
  "__ZN19JBIG2HuffmanDecoder7readBitEv"
  "__ZN19JBIG2HuffmanDecoder9decodeIntEPiP17JBIG2HuffmanTable"
  "__ZN19JBIG2HuffmanDecoder10buildTableEP17JBIG2HuffmanTablej"
  "__ZN15JBIG2MMRDecoderC2Ev"
  "__ZN15JBIG2MMRDecoderC1Ev"
  "__ZN15JBIG2MMRDecoderD2Ev"
  "__ZN15JBIG2MMRDecoderD1Ev"
  "__ZN15JBIG2MMRDecoder5resetEv"
  "__ZN15JBIG2MMRDecoder9get2DCodeEv"
  "__ZN15JBIG2MMRDecoder12getWhiteCodeEv"
  "__ZN15JBIG2MMRDecoder12getBlackCodeEv"
  "__ZN15JBIG2MMRDecoder9get24BitsEv"
  "__ZN15JBIG2MMRDecoder6skipToEj"
  "__ZN11JBIG2BitmapC2Ejii"
  "__ZN11JBIG2BitmapC1Ejii"
  "__ZN11JBIG2BitmapC2EjPS_"
  "__ZN11JBIG2BitmapC1EjPS_"
  "__ZN11JBIG2Bitmap8getSliceEjjjj"
  "__ZN11JBIG2Bitmap6expandEij"
  "__ZN11JBIG2Bitmap11clearToZeroEv"
  "__ZN11JBIG2Bitmap10clearToOneEv"
  "__ZN11JBIG2Bitmap12duplicateRowEii"
  "__ZN11JBIG2Bitmap7combineEPS_iij"
  "__ZN15JBIG2SymbolDictC2Ejj"
  "__ZN15JBIG2SymbolDictC1Ejj"
  "__ZN16JBIG2PatternDictC2Ejj"
  "__ZN16JBIG2PatternDictC1Ejj"
  "__ZN14JBIG2CodeTableC2EjP17JBIG2HuffmanTable"
  "__ZN14JBIG2CodeTableC1EjP17JBIG2HuffmanTable"
  "__ZN11JBIG2StreamC2EP6StreamP6ObjectS3_"
  "__ZTV11JBIG2Stream"
  "__ZN11JBIG2StreamC1EP6StreamP6ObjectS3_"
  "__ZN11JBIG2Stream17readGenericBitmapEbiiibbP11JBIG2BitmapPiS2_i"
  "__ZN11JBIG2Stream27readGenericRefinementRegionEiiibP11JBIG2BitmapiiPiS2_"
  "__ZN11JBIG2Stream14readTextRegionEbbiijjiP17JBIG2HuffmanTablejPP11JBIG2BitmapjjjjiS1_S1_S1_S1_S1_S1_S1_S1_jPiS5_"
  "__ZN11JBIG2Stream18readEndOfStripeSegEj"
  "__ZN11JBIG2Stream15readProfilesSegEj"
  "__ZN11JBIG2Stream16readExtensionSegEj"
  "__ZN11JBIG2Stream11findSegmentEj"
  "__ZN11JBIG2Stream14discardSegmentEj"
  "__ZN11JBIG2Stream17resetGenericStatsEjP23JArithmeticDecoderStats"
  "__ZN11JBIG2Stream20resetRefinementStatsEjP23JArithmeticDecoderStats"
  "__ZN11JBIG2Stream13resetIntStatsEi"
  "__ZN11JBIG2Stream9readUByteEPj"
  "__ZN11JBIG2Stream8readByteEPi"
  "__ZN11JBIG2Stream9readUWordEPj"
  "__ZN11JBIG2Stream9readULongEPj"
  "__ZN11JBIG2Stream17readSymbolDictSegEjjPjj"
  "__ZN11JBIG2Stream17readTextRegionSegEjbbjPjj"
  "__ZN11JBIG2Stream18readPatternDictSegEjj"
  "__ZN11JBIG2Stream20readGenericRegionSegEjbbj"
  "__ZN11JBIG2Stream30readGenericRefinementRegionSegEjbbjPjj"
  "__ZN11JBIG2Stream15readPageInfoSegEj"
  "__ZN11JBIG2Stream8readLongEPi"
  "__ZN11JBIG2Stream21readHalftoneRegionSegEjbbjPjj"
  "__ZN11JBIG2Stream16readCodeTableSegEjj"
  "__ZN11JBIG2Stream12readSegmentsEv"
  "__ZN11JBIG2Stream5resetEv"
  "__ZN11JBIG2Stream5closeEv"
  "__ZN11JBIG2StreamD2Ev"
  "__ZN11JBIG2StreamD1Ev"
  "__ZN11JBIG2StreamD0Ev"
  "__ZTS11JBIG2Stream"
  "__ZTI11JBIG2Stream"
  "__ZTI12JBIG2Segment"
  "__ZTS12JBIG2Segment"
  "__ZTS11JBIG2Bitmap"
  "__ZTI11JBIG2Bitmap"
  "__ZTS15JBIG2SymbolDict"
  "__ZTI15JBIG2SymbolDict"
  "__ZTS16JBIG2PatternDict"
  "__ZTI16JBIG2PatternDict"
  "__ZTS14JBIG2CodeTable"
  "__ZTI14JBIG2CodeTable"
  "__ZN5LexerC2EP4XRefP6Stream"
  "__ZN5LexerC1EP4XRefP6Stream"
  "__ZN5LexerC2EP4XRefP6Object"
  "__ZN5LexerC1EP4XRefP6Object"
  "__ZN5LexerD2Ev"
  "__ZN5LexerD1Ev"
  "__ZN5Lexer7getCharEb"
  "__ZN5Lexer8lookCharEv"
  "__ZN5Lexer6getObjEP6Objecti"
  "__ZN5Lexer6getObjEP6ObjectPKci"
  "__ZN5Lexer14skipToNextLineEv"
  "__ZN5Lexer7isSpaceEi"
  "__ZN13LinearizationC2EP10BaseStream"
  "__ZN13LinearizationC1EP10BaseStream"
  "__ZN13LinearizationD2Ev"
  "__ZN13LinearizationD1Ev"
  "__ZN13Linearization9getLengthEv"
  "__ZN13Linearization14getHintsOffsetEv"
  "__ZN13Linearization14getHintsLengthEv"
  "__ZN13Linearization15getHintsOffset2Ev"
  "__ZN13Linearization15getHintsLength2Ev"
  "__ZN13Linearization20getObjectNumberFirstEv"
  "__ZN13Linearization11getEndFirstEv"
  "__ZN13Linearization11getNumPagesEv"
  "__ZN13Linearization24getMainXRefEntriesOffsetEv"
  "__ZN13Linearization12getPageFirstEv"
  "__ZN8LinkGoTo4isOkEv"
  "__ZN8LinkGoTo7getKindEv"
  "__ZN9LinkGoToR4isOkEv"
  "__ZN9LinkGoToR7getKindEv"
  "__ZN10LinkLaunch4isOkEv"
  "__ZN10LinkLaunch7getKindEv"
  "__ZN7LinkURI4isOkEv"
  "__ZN7LinkURI7getKindEv"
  "__ZN9LinkNamed4isOkEv"
  "__ZN9LinkNamed7getKindEv"
  "__ZN9LinkMovie4isOkEv"
  "__ZN9LinkMovie7getKindEv"
  "__ZN13LinkRendition4isOkEv"
  "__ZN13LinkRendition7getKindEv"
  "__ZN9LinkSound4isOkEv"
  "__ZN9LinkSound7getKindEv"
  "__ZN14LinkJavaScript4isOkEv"
  "__ZN14LinkJavaScript7getKindEv"
  "__ZN12LinkOCGState4isOkEv"
  "__ZN12LinkOCGState7getKindEv"
  "__ZN11LinkUnknown4isOkEv"
  "__ZN11LinkUnknown7getKindEv"
  "__ZN8LinkGoToD2Ev"
  "__ZTV8LinkGoTo"
  "__ZN8LinkGoToD1Ev"
  "__ZN8LinkGoToD0Ev"
  "__ZN9LinkGoToRD2Ev"
  "__ZTV9LinkGoToR"
  "__ZN9LinkGoToRD1Ev"
  "__ZN9LinkGoToRD0Ev"
  "__ZN10LinkLaunchD2Ev"
  "__ZTV10LinkLaunch"
  "__ZN10LinkLaunchD1Ev"
  "__ZN10LinkLaunchD0Ev"
  "__ZN7LinkURID2Ev"
  "__ZTV7LinkURI"
  "__ZN7LinkURID1Ev"
  "__ZN7LinkURID0Ev"
  "__ZN9LinkNamedD2Ev"
  "__ZTV9LinkNamed"
  "__ZN9LinkNamedD1Ev"
  "__ZN9LinkNamedD0Ev"
  "__ZN9LinkMovieD2Ev"
  "__ZTV9LinkMovie"
  "__ZN9LinkMovieD1Ev"
  "__ZN9LinkMovieD0Ev"
  "__ZN14LinkJavaScriptD2Ev"
  "__ZTV14LinkJavaScript"
  "__ZN14LinkJavaScriptD1Ev"
  "__ZN14LinkJavaScriptD0Ev"
  "__ZN11LinkUnknownD2Ev"
  "__ZTV11LinkUnknown"
  "__ZN11LinkUnknownD1Ev"
  "__ZN11LinkUnknownD0Ev"
  "__ZN9LinkSoundD2Ev"
  "__ZTV9LinkSound"
  "__ZN9LinkSoundD1Ev"
  "__ZN9LinkSoundD0Ev"
  "__ZN13LinkRenditionD2Ev"
  "__ZTV13LinkRendition"
  "__ZN13LinkRenditionD1Ev"
  "__ZN13LinkRenditionD0Ev"
  "__ZN8LinkDestC2EP5Array"
  "__ZN8LinkDestC1EP5Array"
  "__ZN8LinkDestC2EPS_"
  "__ZN8LinkDestC1EPS_"
  "__ZN8LinkGoToC2EP6Object"
  "__ZN8LinkGoToC1EP6Object"
  "__ZN10LinkAction9parseDestEP6Object"
  "__ZN9LinkGoToRC2EP6ObjectS1_"
  "__ZN9LinkGoToRC1EP6ObjectS1_"
  "__ZN10LinkLaunchC2EP6Object"
  "__ZN10LinkLaunchC1EP6Object"
  "__ZN7LinkURIC2EP6ObjectP9GooString"
  "__ZN7LinkURIC1EP6ObjectP9GooString"
  "__ZN9LinkNamedC2EP6Object"
  "__ZN9LinkNamedC1EP6Object"
  "__ZN9LinkMovieC2EP6Object"
  "__ZN9LinkMovieC1EP6Object"
  "__ZN9LinkSoundC2EP6Object"
  "__ZN9LinkSoundC1EP6Object"
  "__ZN13LinkRenditionC2EP6Object"
  "__ZN13LinkRenditionC1EP6Object"
  "__ZN14LinkJavaScriptC2EP6Object"
  "__ZN14LinkJavaScriptC1EP6Object"
  "__ZN12LinkOCGState9StateListD2Ev"
  "__ZN12LinkOCGState9StateListD1Ev"
  "__ZN12LinkOCGStateD2Ev"
  "__ZTV12LinkOCGState"
  "__ZN12LinkOCGStateD1Ev"
  "__ZN12LinkOCGStateD0Ev"
  "__ZN12LinkOCGStateC2EP6Object"
  "__ZN12LinkOCGStateC1EP6Object"
  "__ZN11LinkUnknownC2EPc"
  "__ZN11LinkUnknownC1EPc"
  "__ZN10LinkAction11parseActionEP6ObjectP9GooString"
  "__ZN5LinksC2EP6Annots"
  "__ZN5LinksC1EP6Annots"
  "__ZN5LinksD2Ev"
  "__ZN5LinksD1Ev"
  "__ZNK5Links4findEdd"
  "__ZNK5Links6onLinkEdd"
  "__ZTI10LinkAction"
  "__ZTS10LinkAction"
  "__ZTS8LinkGoTo"
  "__ZTI8LinkGoTo"
  "__ZTS9LinkGoToR"
  "__ZTI9LinkGoToR"
  "__ZTS10LinkLaunch"
  "__ZTI10LinkLaunch"
  "__ZTS7LinkURI"
  "__ZTI7LinkURI"
  "__ZTS9LinkNamed"
  "__ZTI9LinkNamed"
  "__ZTS9LinkMovie"
  "__ZTI9LinkMovie"
  "__ZTS13LinkRendition"
  "__ZTI13LinkRendition"
  "__ZTS9LinkSound"
  "__ZTI9LinkSound"
  "__ZTS14LinkJavaScript"
  "__ZTI14LinkJavaScript"
  "__ZTS12LinkOCGState"
  "__ZTI12LinkOCGState"
  "__ZTS11LinkUnknown"
  "__ZTI11LinkUnknown"
  "__ZN18LocalPDFDocBuilderD1Ev"
  "__ZN18LocalPDFDocBuilderD0Ev"
  "__ZN18LocalPDFDocBuilder11buildPDFDocERK9GooStringPS0_S3_Pv"
  "__ZN18LocalPDFDocBuilder8supportsERK9GooString"
  "__ZTI13PDFDocBuilder"
  "__ZTS13PDFDocBuilder"
  "__ZTS18LocalPDFDocBuilder"
  "__ZTI18LocalPDFDocBuilder"
  "__ZTV18LocalPDFDocBuilder"
  "__ZN25MovieActivationParametersC2Ev"
  "__ZN25MovieActivationParametersC1Ev"
  "__ZN25MovieActivationParametersD2Ev"
  "__ZN25MovieActivationParametersD1Ev"
  "__ZN25MovieActivationParameters20parseMovieActivationEP6Object"
  "__ZN5Movie10parseMovieEP6Object"
  "__ZN5MovieD2Ev"
  "__ZN5MovieD1Ev"
  "__ZN5MovieC2EP6Object"
  "__ZN5MovieC1EP6Object"
  "__ZN5MovieC2EP6ObjectS1_"
  "__ZN5MovieC1EP6ObjectS1_"
  "__ZN5Movie21getFloatingWindowSizeEPiS0_"
  "__ZN5Movie4copyEv"
  "__ZN14NameToCharCodeC2Ev"
  "__ZN14NameToCharCodeC1Ev"
  "__ZN14NameToCharCodeD2Ev"
  "__ZN14NameToCharCodeD1Ev"
  "__ZN14NameToCharCode3addEPKcj"
  "__ZN14NameToCharCode6lookupEPKc"
  "__ZN14NameToCharCode4hashEPKc"
  "__ZN6Object9initArrayEP4XRef"
  "__ZN6Object8initDictEP4XRef"
  "__ZN6Object8initDictEP4Dict"
  "__ZN6Object10initStreamEP6Stream"
  "__ZN6Object4copyEPS_"
  "__ZN6Object5fetchEP4XRefPS_i"
  "__ZN6Object4freeEv"
  "__ZN6Object11getTypeNameEv"
  "__ZN6Object5printEP7__sFILE"
  "__ZN6Object8memCheckEP7__sFILE"
  "__ZN4OCGs7hasOCGsEv"
  "__ZN4OCGs12findOcgByRefERK3Ref"
  "__ZN4OCGs20evalOCVisibilityExprEP6Objecti"
  "__ZN4OCGs5allOnEP5Array"
  "__ZN4OCGs6allOffEP5Array"
  "__ZN4OCGs5anyOnEP5Array"
  "__ZN4OCGs6anyOffEP5Array"
  "__ZN4OCGs19optContentIsVisibleEP6Object"
  "__ZN20OptionalContentGroupC2EP4Dict"
  "__ZN20OptionalContentGroupC1EP4Dict"
  "__ZN4OCGsC2EP6ObjectP4XRef"
  "__ZN4OCGsC1EP6ObjectP4XRef"
  "__ZN20OptionalContentGroupC2EP9GooString"
  "__ZN20OptionalContentGroupC1EP9GooString"
  "__ZNK20OptionalContentGroup7getNameEv"
  "__ZN20OptionalContentGroup6setRefE3Ref"
  "__ZNK20OptionalContentGroup6getRefEv"
  "__ZN20OptionalContentGroupD2Ev"
  "__ZN20OptionalContentGroupD1Ev"
  "__ZN13OCDisplayNodeC2Ev"
  "__ZN13OCDisplayNodeC1Ev"
  "__ZN13OCDisplayNodeC2EP9GooString"
  "__ZN13OCDisplayNodeC1EP9GooString"
  "__ZN13OCDisplayNodeC2EP20OptionalContentGroup"
  "__ZN13OCDisplayNodeC1EP20OptionalContentGroup"
  "__ZN13OCDisplayNode8addChildEPS_"
  "__ZN13OCDisplayNode11addChildrenEP7GooList"
  "__ZN13OCDisplayNode12takeChildrenEv"
  "__ZN13OCDisplayNodeD2Ev"
  "__ZN13OCDisplayNodeD1Ev"
  "__ZN4OCGsD2Ev"
  "__ZN4OCGsD1Ev"
  "__ZN13OCDisplayNode5parseEP6ObjectP4OCGsP4XRefi"
  "__ZN4OCGs14getDisplayRootEv"
  "__ZN13OCDisplayNode14getNumChildrenEv"
  "__ZN13OCDisplayNode8getChildEi"
  "__ZN11OutlineItemC2EP4DictP4XRef"
  "__ZN11OutlineItemC1EP4DictP4XRef"
  "__ZN11OutlineItem12readItemListEP6ObjectS1_P4XRef"
  "__ZN7OutlineC2EP6ObjectP4XRef"
  "__ZN7OutlineC1EP6ObjectP4XRef"
  "__ZN11OutlineItem4openEv"
  "__ZN11OutlineItem5closeEv"
  "__ZN11OutlineItemD2Ev"
  "__ZN11OutlineItemD1Ev"
  "__ZN7OutlineD2Ev"
  "__ZN7OutlineD1Ev"
  "__ZN9OutputDev22checkTransparencyGroupEP8GfxStateb"
  "__ZN9OutputDev13setDefaultCTMEPd"
  "__ZN9OutputDev12cvtDevToUserEddPdS0_"
  "__ZN9OutputDev12cvtUserToDevEddPiS0_"
  "__ZN9OutputDev14beginType3CharEP8GfxStateddddjPji"
  "__ZN9OutputDev26unsetSoftMaskFromImageMaskEP8GfxStatePd"
  "__ZN9OutputDev16endMarkedContentEP8GfxState"
  "__ZN9OutputDev18beginMarkedContentEPcP4Dict"
  "__ZN9OutputDev9markPointEPc"
  "__ZN9OutputDev9markPointEPcP4Dict"
  "__ZN9OutputDev8opiBeginEP8GfxStateP4Dict"
  "__ZN9OutputDev6opiEndEP8GfxStateP4Dict"
  "__ZN9OutputDev10endProfileEv"
  "__ZN9OutputDev12startProfileEv"
  "__ZN9OutputDev13drawImageMaskEP8GfxStateP6ObjectP6Streamiibbb"
  "__ZN9OutputDev9drawImageEP8GfxStateP6ObjectP6StreamiiP16GfxImageColorMapbPib"
  "__ZN9OutputDev19drawSoftMaskedImageEP8GfxStateP6ObjectP6StreamiiP16GfxImageColorMapbS5_iiS7_b"
  "__ZN9OutputDev15drawMaskedImageEP8GfxStateP6ObjectP6StreamiiP16GfxImageColorMapbS5_iibb"
  "__ZN9OutputDev24setSoftMaskFromImageMaskEP8GfxStateP6ObjectP6StreamiibbPd"
  "__ZN9OutputDev9updateAllEP8GfxState"
  "__ZN9OutputDev21getIccColorSpaceCacheEv"
  "__ZTV9OutputDev"
  "__ZN12PDFRectangle6clipToEPS_"
  "__ZN9PageAttrsD2Ev"
  "__ZN9PageAttrsD1Ev"
  "__ZN9PageAttrs9clipBoxesEv"
  "__ZN9PageAttrs7readBoxEP4DictPKcP12PDFRectangle"
  "__ZN9PageAttrsC2EPS_P4Dict"
  "__ZN9PageAttrsC1EPS_P4Dict"
  "__ZN4PageC2EP6PDFDociP4Dict3RefP9PageAttrsP4Form"
  "__ZN4PageC1EP6PDFDociP4Dict3RefP9PageAttrsP4Form"
  "__ZN4PageD2Ev"
  "__ZN4PageD1Ev"
  "__ZN4Page15getResourceDictEv"
  "__ZN4Page19getResourceDictCopyEP4XRef"
  "__ZN4Page11replaceXRefEP4XRef"
  "__ZN4Page9getAnnotsEP4XRef"
  "__ZN4Page8addAnnotEP5Annot"
  "__ZN4Page11removeAnnotEP5Annot"
  "__ZN4Page8getLinksEv"
  "__ZN4Page14getFormWidgetsEv"
  "__ZN4Page7displayEP3Gfx"
  "__ZN4Page9loadThumbEPPhPiS2_S2_"
  "__ZN4Page7makeBoxEddibbddddP12PDFRectanglePb"
  "__ZN4Page9createGfxEP9OutputDevddibbiiiibPFbPvES2_P4XRef"
  "__ZN4Page12displaySliceEP9OutputDevddibbiiiibPFbPvES2_PFbP5AnnotS2_ES2_b"
  "__ZN4Page7displayEP9OutputDevddibbbPFbPvES2_PFbP5AnnotS2_ES2_b"
  "__ZN4Page12processLinksEP9OutputDev"
  "__ZN4Page13getDefaultCTMEPdddibb"
  "__ZN4Page19getAdditionalActionENS_25PageAdditionalActionsTypeE"
  "__ZN14PageTransitionC2EP6Object"
  "__ZN14PageTransitionC1EP6Object"
  "__ZN14PageTransitionD2Ev"
  "__ZN14PageTransitionD1Ev"
  "__ZN6ParserC2EP4XRefP5Lexerb"
  "__ZN6ParserC1EP4XRefP5Lexerb"
  "__ZN6ParserD2Ev"
  "__ZN6ParserD1Ev"
  "__ZN6Parser5shiftEi"
  "__ZN6Parser5shiftEPKci"
  "__ZN6Parser10makeStreamEP6ObjectPh14CryptAlgorithmiiiib"
  "__ZN6Parser6getObjEP6ObjectbPh14CryptAlgorithmiiiib"
  "__ZN6Parser6getObjEP6Objecti"
  "__ZN10BaseStream11getFileNameEv"
  "__ZN6PDFDoc4initEv"
  "__ZN6PDFDocC2Ev"
  "__ZN6PDFDocC1Ev"
  "__ZN6PDFDoc11checkFooterEv"
  "__ZN6PDFDoc11checkHeaderEv"
  "__ZN6PDFDoc15checkEncryptionEP9GooStringS1_"
  "__ZN6PDFDoc16getLinearizationEv"
  "__ZN6PDFDoc18checkLinearizationEv"
  "__ZN6PDFDoc12isLinearizedEb"
  "__ZN6PDFDoc18setDocInfoModifiedEP6Object"
  "__ZN6PDFDoc21setDocInfoStringEntryEPKcP9GooString"
  "__ZN6PDFDoc21getDocInfoStringEntryEPKc"
  "__ZN6PDFDoc5getIDEP9GooStringS1_"
  "__ZN6PDFDoc8getHintsEv"
  "__ZN6PDFDoc20saveWithoutChangesAsEP9OutStream"
  "__ZN6PDFDoc20saveWithoutChangesAsEP9GooString"
  "__ZN6PDFDoc11writeStreamEP6StreamP9OutStream"
  "__ZN6PDFDoc14writeRawStreamEP6StreamP9OutStream"
  "__ZN6PDFDoc11writeStringEP9GooStringP9OutStreamPh14CryptAlgorithmiii"
  "__ZN6PDFDoc17writeObjectHeaderEP3RefP9OutStream"
  "__ZN6PDFDoc11writeObjectEP6ObjectP9OutStreamP4XRefjPh14CryptAlgorithmiii"
  "__ZN6PDFDoc16writeDictionnaryEP4DictP9OutStreamP4XRefjPh14CryptAlgorithmiii"
  "__ZN6PDFDoc17writeObjectFooterEP9OutStream"
  "__ZN6PDFDoc17createTrailerDictEibxP3RefP4XRefPKcx"
  "__ZN6PDFDoc21writeXRefTableTrailerEP4DictP4XRefbxP9OutStreamS3_"
  "__ZN6PDFDoc22writeXRefStreamTrailerEP4DictP4XRefP3RefxP9OutStreamS3_"
  "__ZN6PDFDoc11writeHeaderEP9OutStreamii"
  "__ZN6PDFDoc15replacePageDictEiiP12PDFRectangleS1_"
  "__ZN6PDFDoc15markAnnotationsEP6ObjectP4XRefS3_jii"
  "__ZN6PDFDoc15markPageObjectsEP4DictP4XRefS3_jii"
  "__ZN6PDFDoc15markDictionnaryEP4DictP4XRefS3_jii"
  "__ZN6PDFDoc10markObjectEP6ObjectP4XRefS3_jii"
  "__ZN6PDFDoc12markAcroFormEP6ObjectP4XRefS3_jii"
  "__ZN6PDFDoc16writePageObjectsEP9OutStreamP4XRefjb"
  "__ZN6PDFDoc10getOutlineEv"
  "__ZN6PDFDoc11ErrorPDFDocEiP9GooString"
  "__ZN6PDFDoc13strToLongLongEPc"
  "__ZN6PDFDoc12getStartXRefEb"
  "__ZN6PDFDoc21saveIncrementalUpdateEP9OutStream"
  "__ZN6PDFDoc21writeXRefTableTrailerExP4XRefbiP9OutStreamb"
  "__ZN6PDFDoc19saveCompleteRewriteEP9OutStream"
  "__ZN6PDFDoc6saveAsEP9OutStream12PDFWriteMode"
  "__ZN6PDFDoc6saveAsEP9GooString12PDFWriteMode"
  "__ZN6PDFDoc24getMainXRefEntriesOffsetEb"
  "__ZN6PDFDoc5setupEP9GooStringS1_"
  "__ZN6PDFDocC2EP9GooStringS1_S1_Pv"
  "__ZN6PDFDocC1EP9GooStringS1_S1_Pv"
  "__ZN6PDFDocC2EP10BaseStreamP9GooStringS3_Pv"
  "__ZN6PDFDocC1EP10BaseStreamP9GooStringS3_Pv"
  "__ZN6PDFDoc11getNumPagesEv"
  "__ZN6PDFDocD2Ev"
  "__ZN6PDFDocD1Ev"
  "__ZN6PDFDoc10savePageAsEP9GooStringi"
  "__ZN6PDFDoc9parsePageEi"
  "__ZN6PDFDoc7getPageEi"
  "__ZN6PDFDoc11displayPageEP9OutputDeviddibbbPFbPvES2_PFbP5AnnotS2_ES2_b"
  "__ZN6PDFDoc12displayPagesEP9OutputDeviiddibbbPFbPvES2_PFbP5AnnotS2_ES2_"
  "__ZN6PDFDoc16displayPageSliceEP9OutputDeviddibbbiiiiPFbPvES2_PFbP5AnnotS2_ES2_b"
  "__ZN6PDFDoc8getLinksEi"
  "__ZN6PDFDoc12processLinksEP9OutputDevi"
  "__ZNSt6vectorIP19FormWidgetSignatureSaIS1_EE13_M_insert_auxEN9__gnu_cxx17__normal_iteratorIPS1_S3_EERKS1_"
  "__ZN6PDFDoc19getSignatureWidgetsEv"
  "__ZN13PDFDocFactoryC2EP7GooList"
  "__ZN13PDFDocFactoryC1EP7GooList"
  "__ZN13PDFDocFactoryD2Ev"
  "__ZN13PDFDocFactoryD1Ev"
  "__ZN13PDFDocFactory12createPDFDocERK9GooStringPS0_S3_Pv"
  "__ZN13PDFDocFactory21registerPDFDocBuilderEP13PDFDocBuilder"
  "__ZN16PopplerCacheItemD2Ev"
  "__ZN16PopplerCacheItemD1Ev"
  "__ZNK9ObjectKeyeqERK15PopplerCacheKey"
  "__ZN9ObjectKeyD1Ev"
  "__ZN16PopplerCacheItemD0Ev"
  "__ZN9ObjectKeyD0Ev"
  "__ZN10ObjectItemD1Ev"
  "__ZTV10ObjectItem"
  "__ZN10ObjectItemD0Ev"
  "__ZN15PopplerCacheKeyD2Ev"
  "__ZN15PopplerCacheKeyD1Ev"
  "__ZN15PopplerCacheKeyD0Ev"
  "__ZN12PopplerCacheC2Ei"
  "__ZN12PopplerCacheC1Ei"
  "__ZN12PopplerCacheD2Ev"
  "__ZN12PopplerCacheD1Ev"
  "__ZN12PopplerCache6lookupERK15PopplerCacheKey"
  "__ZN12PopplerCache3putEP15PopplerCacheKeyP16PopplerCacheItem"
  "__ZN12PopplerCache4sizeEv"
  "__ZN12PopplerCache13numberOfItemsEv"
  "__ZN12PopplerCache4itemEi"
  "__ZN12PopplerCache3keyEi"
  "__ZN18PopplerObjectCacheC2EiP4XRef"
  "__ZN18PopplerObjectCacheC1EiP4XRef"
  "__ZN18PopplerObjectCacheD2Ev"
  "__ZN18PopplerObjectCacheD1Ev"
  "__ZN18PopplerObjectCache3putERK3Ref"
  "__ZTV9ObjectKey"
  "__ZN18PopplerObjectCache6lookupERK3RefP6Object"
  "__ZTI9ObjectKey"
  "__ZTS9ObjectKey"
  "__ZTI10ObjectItem"
  "__ZTS10ObjectItem"
  "__ZTV15PopplerCacheKey"
  "__ZTV16PopplerCacheItem"
  "__ZN11ProfileDataC2Ev"
  "__ZN11ProfileDataC1Ev"
  "__ZN11ProfileData10addElementEd"
  "__ZN16PreScanOutputDev10upsideDownEv"
  "__ZN16PreScanOutputDev11useDrawCharEv"
  "__ZN16PreScanOutputDev20useTilingPatternFillEv"
  "__ZN16PreScanOutputDev14useShadedFillsEi"
  "__ZN16PreScanOutputDev19interpretType3CharsEv"
  "__ZN16PreScanOutputDev9startPageEiP8GfxStateP4XRef"
  "__ZN16PreScanOutputDev7endPageEv"
  "__ZN16PreScanOutputDev18functionShadedFillEP8GfxStateP18GfxFunctionShading"
  "__ZN16PreScanOutputDev15axialShadedFillEP8GfxStateP15GfxAxialShadingdd"
  "__ZN16PreScanOutputDev16radialShadedFillEP8GfxStateP16GfxRadialShadingdd"
  "__ZN16PreScanOutputDev4clipEP8GfxState"
  "__ZN16PreScanOutputDev6eoClipEP8GfxState"
  "__ZN16PreScanOutputDev11endStringOpEP8GfxState"
  "__ZN16PreScanOutputDev14beginType3CharEP8GfxStateddddjPji"
  "__ZN16PreScanOutputDev12endType3CharEP8GfxState"
  "__ZN16PreScanOutputDev9drawImageEP8GfxStateP6ObjectP6StreamiiP16GfxImageColorMapbPib"
  "__ZN16PreScanOutputDev15drawMaskedImageEP8GfxStateP6ObjectP6StreamiiP16GfxImageColorMapbS5_iibb"
  "__ZN16PreScanOutputDev19drawSoftMaskedImageEP8GfxStateP6ObjectP6StreamiiP16GfxImageColorMapbS5_iiS7_b"
  "__ZN16PreScanOutputDev22beginTransparencyGroupEP8GfxStatePdP13GfxColorSpacebbb"
  "__ZN16PreScanOutputDev11setSoftMaskEP8GfxStatePdbP8FunctionP8GfxColor"
  "__ZN16PreScanOutputDevD2Ev"
  "__ZN16PreScanOutputDevD1Ev"
  "__ZN16PreScanOutputDevD0Ev"
  "__ZN16PreScanOutputDevC2EP6PDFDoc"
  "__ZTV16PreScanOutputDev"
  "__ZN16PreScanOutputDevC1EP6PDFDoc"
  "__ZN16PreScanOutputDev5checkEP13GfxColorSpaceP8GfxColord12GfxBlendMode"
  "__ZN16PreScanOutputDev6strokeEP8GfxState"
  "__ZN16PreScanOutputDev4fillEP8GfxState"
  "__ZN16PreScanOutputDev6eoFillEP8GfxState"
  "__ZN16PreScanOutputDev17tilingPatternFillEP8GfxStateP3GfxP7CatalogP6ObjectPdiiP4DictS8_S8_iiiidd"
  "__ZN16PreScanOutputDev13beginStringOpEP8GfxState"
  "__ZN16PreScanOutputDev13drawImageMaskEP8GfxStateP6ObjectP6Streamiibbb"
  "__ZN16PreScanOutputDev22paintTransparencyGroupEP8GfxStatePd"
  "__ZN16PreScanOutputDev10clearStatsEv"
  "__ZTS16PreScanOutputDev"
  "__ZTI16PreScanOutputDev"
  "__ZN11PSTokenizerC2EPFiPvES0_"
  "__ZN11PSTokenizerC1EPFiPvES0_"
  "__ZN11PSTokenizerD2Ev"
  "__ZN11PSTokenizerD1Ev"
  "__ZN11PSTokenizer8getTokenEPciPi"
  "__ZN11PSTokenizer8lookCharEv"
  "__ZN11PSTokenizer11consumeCharEv"
  "__ZN11PSTokenizer7getCharEv"
  "__ZN21MediaWindowParametersC2Ev"
  "__ZN21MediaWindowParametersC1Ev"
  "__ZN21MediaWindowParametersD2Ev"
  "__ZN21MediaWindowParametersD1Ev"
  "__ZN21MediaWindowParameters13parseFWParamsEP6Object"
  "__ZN15MediaParametersC2Ev"
  "__ZN15MediaParametersC1Ev"
  "__ZN15MediaParametersD2Ev"
  "__ZN15MediaParametersD1Ev"
  "__ZN15MediaParameters24parseMediaPlayParametersEP6Object"
  "__ZN15MediaParameters26parseMediaScreenParametersEP6Object"
  "__ZN14MediaRenditionD2Ev"
  "__ZN14MediaRenditionD1Ev"
  "__ZN14MediaRenditionC2EP6Object"
  "__ZN14MediaRenditionC1EP6Object"
  "__ZN14MediaRendition12outputToFileEP7__sFILE"
  "__ZN14MediaRendition4copyEv"
  "__ZN13SignatureInfoC2Ev"
  "__ZN13SignatureInfoC1Ev"
  "__ZN13SignatureInfoC2E25SignatureValidationStatus27CertificateValidationStatus"
  "__ZN13SignatureInfoC1E25SignatureValidationStatus27CertificateValidationStatus"
  "__ZN13SignatureInfoD2Ev"
  "__ZN13SignatureInfoD1Ev"
  "__ZN13SignatureInfo21getSignatureValStatusEv"
  "__ZN13SignatureInfo23getCertificateValStatusEv"
  "__ZN13SignatureInfo13getSignerNameEv"
  "__ZN13SignatureInfo14getSigningTimeEv"
  "__ZN13SignatureInfo21setSignatureValStatusE25SignatureValidationStatus"
  "__ZN13SignatureInfo23setCertificateValStatusE27CertificateValidationStatus"
  "__ZN13SignatureInfo13setSignerNameEPc"
  "__ZN13SignatureInfo14setSigningTimeEi"
  "__ZN16StdinCacheLoader4loadERKSt6vectorI10_ByteRangeSaIS1_EEP16CachedFileWriter"
  "__ZN16StdinCacheLoaderD1Ev"
  "__ZN16StdinCacheLoader4initEP9GooStringP10CachedFile"
  "__ZN16StdinCacheLoaderD0Ev"
  "__ZTI16CachedFileLoader"
  "__ZTS16CachedFileLoader"
  "__ZTS16StdinCacheLoader"
  "__ZTI16StdinCacheLoader"
  "__ZTV16StdinCacheLoader"
  "__ZN18StdinPDFDocBuilderD1Ev"
  "__ZN18StdinPDFDocBuilder11buildPDFDocERK9GooStringPS0_S3_Pv"
  "__ZN18StdinPDFDocBuilder8supportsERK9GooString"
  "__ZN18StdinPDFDocBuilderD0Ev"
  "__ZTS18StdinPDFDocBuilder"
  "__ZTI18StdinPDFDocBuilder"
  "__ZTV18StdinPDFDocBuilder"
  "__ZN6Stream13getNextStreamEv"
  "__ZN10BaseStream8isBinaryEb"
  "__ZN10BaseStream13getBaseStreamEv"
  "__ZN10BaseStream18getUndecodedStreamEv"
  "__ZN10FileStream7getKindEv"
  "__ZN10FileStream6getPosEv"
  "__ZN10FileStream8getStartEv"
  "__ZN10FileStream15unfilteredResetEv"
  "__ZN10FileStream11hasGetCharsEv"
  "__ZN16CachedFileStream7getKindEv"
  "__ZN16CachedFileStream6getPosEv"
  "__ZN16CachedFileStream8getStartEv"
  "__ZN16CachedFileStream15unfilteredResetEv"
  "__ZN9MemStream7getKindEv"
  "__ZN9MemStream7getCharEv"
  "__ZN9MemStream8lookCharEv"
  "__ZN9MemStream6getPosEv"
  "__ZN9MemStream8getStartEv"
  "__ZN9MemStream11hasGetCharsEv"
  "__ZN11EmbedStream7getKindEv"
  "__ZN11EmbedStream5resetEv"
  "__ZN11EmbedStream6getPosEv"
  "__ZN11EmbedStream17getUnfilteredCharEv"
  "__ZN11EmbedStream15unfilteredResetEv"
  "__ZN11EmbedStream11hasGetCharsEv"
  "__ZN14ASCIIHexStream7getKindEv"
  "__ZN14ASCIIHexStream7getCharEv"
  "__ZN13ASCII85Stream7getKindEv"
  "__ZN13ASCII85Stream7getCharEv"
  "__ZN9LZWStream7getKindEv"
  "__ZN9LZWStream11hasGetCharsEv"
  "__ZN15RunLengthStream7getKindEv"
  "__ZN15RunLengthStream11hasGetCharsEv"
  "__ZN14CCITTFaxStream7getKindEv"
  "__ZN14CCITTFaxStream7getCharEv"
  "__ZN9EOFStream7getKindEv"
  "__ZN9EOFStream5resetEv"
  "__ZN9EOFStream7getCharEv"
  "__ZN9EOFStream8lookCharEv"
  "__ZN9EOFStream11getPSFilterEiPKc"
  "__ZN9EOFStream8isBinaryEb"
  "__ZN9BufStream7getKindEv"
  "__ZN9BufStream11getPSFilterEiPKc"
  "__ZN18FixedLengthEncoder7getKindEv"
  "__ZN18FixedLengthEncoder11getPSFilterEiPKc"
  "__ZN18FixedLengthEncoder9isEncoderEv"
  "__ZN15ASCIIHexEncoder7getKindEv"
  "__ZN15ASCIIHexEncoder11getPSFilterEiPKc"
  "__ZN15ASCIIHexEncoder8isBinaryEb"
  "__ZN15ASCIIHexEncoder9isEncoderEv"
  "__ZN14ASCII85Encoder7getKindEv"
  "__ZN14ASCII85Encoder11getPSFilterEiPKc"
  "__ZN14ASCII85Encoder8isBinaryEb"
  "__ZN14ASCII85Encoder9isEncoderEv"
  "__ZN16RunLengthEncoder7getKindEv"
  "__ZN16RunLengthEncoder11getPSFilterEiPKc"
  "__ZN16RunLengthEncoder8isBinaryEb"
  "__ZN16RunLengthEncoder9isEncoderEv"
  "__ZN10LZWEncoder7getKindEv"
  "__ZN10LZWEncoder11getPSFilterEiPKc"
  "__ZN10LZWEncoder8isBinaryEb"
  "__ZN10LZWEncoder9isEncoderEv"
  "__ZN15CMYKGrayEncoder7getKindEv"
  "__ZN15CMYKGrayEncoder11getPSFilterEiPKc"
  "__ZN15CMYKGrayEncoder8isBinaryEb"
  "__ZN15CMYKGrayEncoder9isEncoderEv"
  "__ZN14RGBGrayEncoder7getKindEv"
  "__ZN14RGBGrayEncoder11getPSFilterEiPKc"
  "__ZN14RGBGrayEncoder8isBinaryEb"
  "__ZN14RGBGrayEncoder9isEncoderEv"
  "__ZN6Stream5closeEv"
  "__ZN6Stream7getLineEPci"
  "__ZN13FileOutStreamD2Ev"
  "__ZN13FileOutStreamD1Ev"
  "__ZN13FileOutStream5closeEv"
  "__ZN12FilterStream5closeEv"
  "__ZN10FileStream5resetEv"
  "__ZN10FileStream9moveStartEx"
  "__ZN16CachedFileStream9moveStartEx"
  "__ZN9MemStream5resetEv"
  "__ZN9MemStream5closeEv"
  "__ZN9MemStream6setPosExi"
  "__ZN9MemStream9moveStartEx"
  "__ZN11EmbedStream7getCharEv"
  "__ZN11EmbedStream8lookCharEv"
  "__ZN14ASCIIHexStream5resetEv"
  "__ZN14ASCIIHexStream8isBinaryEb"
  "__ZN13ASCII85Stream5resetEv"
  "__ZN13ASCII85Stream8isBinaryEb"
  "__ZN9LZWStream5resetEv"
  "__ZN9LZWStream8isBinaryEb"
  "__ZN15RunLengthStream5resetEv"
  "__ZN15RunLengthStream8isBinaryEb"
  "__ZN14CCITTFaxStream8isBinaryEb"
  "__ZN9BufStream5resetEv"
  "__ZN9BufStream7getCharEv"
  "__ZN9BufStream8lookCharEv"
  "__ZN9BufStream8isBinaryEb"
  "__ZN18FixedLengthEncoder5resetEv"
  "__ZN18FixedLengthEncoder7getCharEv"
  "__ZN18FixedLengthEncoder8lookCharEv"
  "__ZN18FixedLengthEncoder8isBinaryEb"
  "__ZN15ASCIIHexEncoder5resetEv"
  "__ZN14ASCII85Encoder5resetEv"
  "__ZN16RunLengthEncoder5resetEv"
  "__ZN15CMYKGrayEncoder5resetEv"
  "__ZN14RGBGrayEncoder5resetEv"
  "__ZN14ASCIIHexStreamD2Ev"
  "__ZTV14ASCIIHexStream"
  "__ZTV6Stream"
  "__ZN14ASCIIHexStreamD1Ev"
  "__ZN13ASCII85StreamD2Ev"
  "__ZTV13ASCII85Stream"
  "__ZN13ASCII85StreamD1Ev"
  "__ZN15RunLengthStreamD2Ev"
  "__ZTV15RunLengthStream"
  "__ZN15RunLengthStreamD1Ev"
  "__ZN9EOFStreamD2Ev"
  "__ZTV9EOFStream"
  "__ZN9EOFStreamD1Ev"
  "__ZN18FixedLengthEncoderD2Ev"
  "__ZTV18FixedLengthEncoder"
  "__ZN18FixedLengthEncoderD1Ev"
  "__ZN15ASCIIHexEncoderD2Ev"
  "__ZTV15ASCIIHexEncoder"
  "__ZN15ASCIIHexEncoderD1Ev"
  "__ZN14ASCII85EncoderD2Ev"
  "__ZTV14ASCII85Encoder"
  "__ZN14ASCII85EncoderD1Ev"
  "__ZN16RunLengthEncoderD2Ev"
  "__ZTV16RunLengthEncoder"
  "__ZN16RunLengthEncoderD1Ev"
  "__ZN10LZWEncoderD2Ev"
  "__ZTV10LZWEncoder"
  "__ZN10LZWEncoderD1Ev"
  "__ZN15CMYKGrayEncoderD2Ev"
  "__ZTV15CMYKGrayEncoder"
  "__ZN15CMYKGrayEncoderD1Ev"
  "__ZN14RGBGrayEncoderD2Ev"
  "__ZTV14RGBGrayEncoder"
  "__ZN14RGBGrayEncoderD1Ev"
  "__ZN13FileOutStreamD0Ev"
  "__ZN14ASCIIHexStreamD0Ev"
  "__ZN13ASCII85StreamD0Ev"
  "__ZN15RunLengthStreamD0Ev"
  "__ZN9EOFStreamD0Ev"
  "__ZN18FixedLengthEncoderD0Ev"
  "__ZN15ASCIIHexEncoderD0Ev"
  "__ZN14ASCII85EncoderD0Ev"
  "__ZN16RunLengthEncoderD0Ev"
  "__ZN10LZWEncoderD0Ev"
  "__ZN15CMYKGrayEncoderD0Ev"
  "__ZN14RGBGrayEncoderD0Ev"
  "__ZN6Stream10getRawCharEv"
  "__ZN6Stream8getCharsEiPh"
  "__ZN6Stream11getRawCharsEiPi"
  "__ZN12FilterStream6setPosExi"
  "__ZN11EmbedStream4copyEv"
  "__ZN11EmbedStream13makeSubStreamExbxP6Object"
  "__ZN11EmbedStream6setPosExi"
  "__ZN11EmbedStream8getStartEv"
  "__ZN11EmbedStream9moveStartEx"
  "__ZN6Stream11getPSFilterEiPKc"
  "__ZN11EmbedStreamD2Ev"
  "__ZTV10BaseStream"
  "__ZN11EmbedStreamD1Ev"
  "__ZN11EmbedStreamD0Ev"
  "__ZN13FileOutStream6getPosEv"
  "__ZN13FileOutStream3putEc"
  "__ZN13FileOutStream6printfEPKcz"
  "__ZN9MemStreamD2Ev"
  "__ZTV9MemStream"
  "__ZN9MemStreamD1Ev"
  "__ZN9MemStreamD0Ev"
  "__ZN14CCITTFaxStreamD2Ev"
  "__ZTV14CCITTFaxStream"
  "__ZN14CCITTFaxStreamD1Ev"
  "__ZN14CCITTFaxStreamD0Ev"
  "__ZN9BufStreamD2Ev"
  "__ZTV9BufStream"
  "__ZN9BufStreamD1Ev"
  "__ZN9BufStreamD0Ev"
  "__ZN9LZWStreamD2Ev"
  "__ZTV9LZWStream"
  "__ZN9LZWStreamD1Ev"
  "__ZN9LZWStreamD0Ev"
  "__ZN9MemStream8getCharsEiPh"
  "__ZN10FileStream6setPosExi"
  "__ZN16CachedFileStream5resetEv"
  "__ZN16CachedFileStream6setPosExi"
  "__ZN14ASCIIHexStream11getPSFilterEiPKc"
  "__ZN13ASCII85Stream11getPSFilterEiPKc"
  "__ZN15RunLengthStream11getPSFilterEiPKc"
  "__ZN13ASCII85Stream8lookCharEv"
  "__ZN14CCITTFaxStream11getPSFilterEiPKc"
  "__ZN10FileStreamD2Ev"
  "__ZTV10FileStream"
  "__ZN10FileStreamD1Ev"
  "__ZN10FileStreamD0Ev"
  "__ZN16CachedFileStreamD2Ev"
  "__ZTV16CachedFileStream"
  "__ZN16CachedFileStreamD1Ev"
  "__ZN16CachedFileStreamD0Ev"
  "__ZN9LZWStream11getPSFilterEiPKc"
  "__ZN15RunLengthStream8lookCharEv"
  "__ZN15RunLengthStream7getCharEv"
  "__ZN15RunLengthStream8getCharsEiPh"
  "__ZN15ASCIIHexEncoder8lookCharEv"
  "__ZN15ASCIIHexEncoder7getCharEv"
  "__ZN14ASCII85Encoder8lookCharEv"
  "__ZN14ASCII85Encoder7getCharEv"
  "__ZN16RunLengthEncoder8lookCharEv"
  "__ZN16RunLengthEncoder7getCharEv"
  "__ZN15CMYKGrayEncoder8lookCharEv"
  "__ZN15CMYKGrayEncoder7getCharEv"
  "__ZN14RGBGrayEncoder8lookCharEv"
  "__ZN14RGBGrayEncoder7getCharEv"
  "__ZN9MemStream15unfilteredResetEv"
  "__ZN10FileStream5closeEv"
  "__ZN9MemStream17getUnfilteredCharEv"
  "__ZN10BaseStream7getDictEv"
  "__ZN16CachedFileStream5closeEv"
  "__ZN10LZWEncoder5resetEv"
  "__ZN16CachedFileStream13makeSubStreamExbxP6Object"
  "__ZN16CachedFileStream4copyEv"
  "__ZN11EmbedStream8getCharsEiPh"
  "__ZN14ASCIIHexStream8lookCharEv"
  "__ZN6StreamC2Ev"
  "__ZN6StreamC1Ev"
  "__ZN6StreamD2Ev"
  "__ZN6StreamD1Ev"
  "__ZN6StreamD0Ev"
  "__ZN6Stream6incRefEv"
  "__ZN6Stream6decRefEv"
  "__ZN9OutStreamC2Ev"
  "__ZTV9OutStream"
  "__ZN9OutStreamC1Ev"
  "__ZN9OutStreamD2Ev"
  "__ZN9OutStreamD1Ev"
  "__ZN9OutStreamD0Ev"
  "__ZN13FileOutStreamC2EP7__sFILEx"
  "__ZTV13FileOutStream"
  "__ZN13FileOutStreamC1EP7__sFILEx"
  "__ZN10BaseStreamC2EP6Objectx"
  "__ZN10BaseStreamC1EP6Objectx"
  "__ZN10BaseStreamD2Ev"
  "__ZN10BaseStreamD1Ev"
  "__ZN10BaseStreamD0Ev"
  "__ZN12FilterStreamC2EP6Stream"
  "__ZTV12FilterStream"
  "__ZN12FilterStreamC1EP6Stream"
  "__ZN12FilterStreamD2Ev"
  "__ZN12FilterStreamD1Ev"
  "__ZN12FilterStreamD0Ev"
  "__ZN11ImageStreamC2EP6Streamiii"
  "__ZN11ImageStreamC1EP6Streamiii"
  "__ZN11ImageStreamD2Ev"
  "__ZN11ImageStreamD1Ev"
  "__ZN11ImageStream5resetEv"
  "__ZN11ImageStream5closeEv"
  "__ZN11ImageStream7getLineEv"
  "__ZN11ImageStream8getPixelEPh"
  "__ZN11ImageStream8skipLineEv"
  "__ZN15StreamPredictorC2EP6Streamiiii"
  "__ZN15StreamPredictorC1EP6Streamiiii"
  "__ZN15StreamPredictorD2Ev"
  "__ZN15StreamPredictorD1Ev"
  "__ZN15StreamPredictor11getNextLineEv"
  "__ZN15StreamPredictor8lookCharEv"
  "__ZN15StreamPredictor7getCharEv"
  "__ZN15StreamPredictor8getCharsEiPh"
  "__ZN10FileStreamC2EP7GooFilexbxP6Object"
  "__ZN10FileStreamC1EP7GooFilexbxP6Object"
  "__ZN10FileStream13makeSubStreamExbxP6Object"
  "__ZN10FileStream4copyEv"
  "__ZN10FileStream7fillBufEv"
  "__ZN10FileStream8lookCharEv"
  "__ZN10FileStream7getCharEv"
  "__ZN10FileStream8getCharsEiPh"
  "__ZN10FileStream17getUnfilteredCharEv"
  "__ZN16CachedFileStreamC2EP10CachedFilexbxP6Object"
  "__ZN16CachedFileStreamC1EP10CachedFilexbxP6Object"
  "__ZN16CachedFileStream7fillBufEv"
  "__ZN16CachedFileStream8lookCharEv"
  "__ZN16CachedFileStream7getCharEv"
  "__ZN16CachedFileStream17getUnfilteredCharEv"
  "__ZN9MemStreamC2EPcxxP6Object"
  "__ZN9MemStreamC1EPcxxP6Object"
  "__ZN9MemStream13makeSubStreamExbxP6Object"
  "__ZN9MemStream4copyEv"
  "__ZN11EmbedStreamC2EP6StreamP6Objectbx"
  "__ZTV11EmbedStream"
  "__ZN11EmbedStreamC1EP6StreamP6Objectbx"
  "__ZN14ASCIIHexStreamC2EP6Stream"
  "__ZN14ASCIIHexStreamC1EP6Stream"
  "__ZN13ASCII85StreamC2EP6Stream"
  "__ZN13ASCII85StreamC1EP6Stream"
  "__ZN9LZWStreamC2EP6Streamiiiii"
  "__ZN9LZWStreamC1EP6Streamiiiii"
  "__ZN9LZWStream10clearTableEv"
  "__ZN9LZWStream7getCodeEv"
  "__ZN9LZWStream15processNextCodeEv"
  "__ZN9LZWStream7getCharEv"
  "__ZN9LZWStream8lookCharEv"
  "__ZN9LZWStream10getRawCharEv"
  "__ZN9LZWStream8getCharsEiPh"
  "__ZN9LZWStream11getRawCharsEiPi"
  "__ZN15RunLengthStreamC2EP6Stream"
  "__ZN15RunLengthStreamC1EP6Stream"
  "__ZN15RunLengthStream7fillBufEv"
  "__ZN14CCITTFaxStreamC2EP6Streamibbiibb"
  "__ZN14CCITTFaxStreamC1EP6Streamibbiibb"
  "__ZN6Stream10makeFilterEPcPS_P6ObjectiS3_"
  "__ZN6Stream10addFiltersEP6Objecti"
  "__ZN14CCITTFaxStream10ccittResetEb"
  "__ZN14CCITTFaxStream15unfilteredResetEv"
  "__ZN14CCITTFaxStream8lookBitsEi"
  "__ZN14CCITTFaxStream5resetEv"
  "__ZN14CCITTFaxStream13getTwoDimCodeEv"
  "__ZN14CCITTFaxStream12getWhiteCodeEv"
  "__ZN14CCITTFaxStream12getBlackCodeEv"
  "__ZN14CCITTFaxStream8lookCharEv"
  "__ZN9EOFStreamC2EP6Stream"
  "__ZN9EOFStreamC1EP6Stream"
  "__ZN9BufStreamC2EP6Streami"
  "__ZN9BufStreamC1EP6Streami"
  "__ZN9BufStream8lookCharEi"
  "__ZN18FixedLengthEncoderC2EP6Streami"
  "__ZN18FixedLengthEncoderC1EP6Streami"
  "__ZN15ASCIIHexEncoderC2EP6Stream"
  "__ZN15ASCIIHexEncoderC1EP6Stream"
  "__ZN15ASCIIHexEncoder7fillBufEv"
  "__ZN14ASCII85EncoderC2EP6Stream"
  "__ZN14ASCII85EncoderC1EP6Stream"
  "__ZN14ASCII85Encoder7fillBufEv"
  "__ZN16RunLengthEncoderC2EP6Stream"
  "__ZN16RunLengthEncoderC1EP6Stream"
  "__ZN16RunLengthEncoder7fillBufEv"
  "__ZN10LZWEncoderC2EP6Stream"
  "__ZN10LZWEncoderC1EP6Stream"
  "__ZN10LZWEncoder7fillBufEv"
  "__ZN10LZWEncoder7getCharEv"
  "__ZN10LZWEncoder8lookCharEv"
  "__ZN15CMYKGrayEncoderC2EP6Stream"
  "__ZN15CMYKGrayEncoderC1EP6Stream"
  "__ZN15CMYKGrayEncoder7fillBufEv"
  "__ZN14RGBGrayEncoderC2EP6Stream"
  "__ZN14RGBGrayEncoderC1EP6Stream"
  "__ZN14RGBGrayEncoder7fillBufEv"
  "__ZTS9OutStream"
  "__ZTI9OutStream"
  "__ZTS13FileOutStream"
  "__ZTI13FileOutStream"
  "__ZTS10BaseStream"
  "__ZTI10BaseStream"
  "__ZTS10FileStream"
  "__ZTI10FileStream"
  "__ZTS16CachedFileStream"
  "__ZTI16CachedFileStream"
  "__ZTS9MemStream"
  "__ZTI9MemStream"
  "__ZTS11EmbedStream"
  "__ZTI11EmbedStream"
  "__ZTS14ASCIIHexStream"
  "__ZTI14ASCIIHexStream"
  "__ZTS13ASCII85Stream"
  "__ZTI13ASCII85Stream"
  "__ZTS9LZWStream"
  "__ZTI9LZWStream"
  "__ZTS15RunLengthStream"
  "__ZTI15RunLengthStream"
  "__ZTS14CCITTFaxStream"
  "__ZTI14CCITTFaxStream"
  "__ZTS9EOFStream"
  "__ZTI9EOFStream"
  "__ZTS9BufStream"
  "__ZTI9BufStream"
  "__ZTS18FixedLengthEncoder"
  "__ZTI18FixedLengthEncoder"
  "__ZTS15ASCIIHexEncoder"
  "__ZTI15ASCIIHexEncoder"
  "__ZTS14ASCII85Encoder"
  "__ZTI14ASCII85Encoder"
  "__ZTS16RunLengthEncoder"
  "__ZTI16RunLengthEncoder"
  "__ZTS10LZWEncoder"
  "__ZTI10LZWEncoder"
  "__ZTS15CMYKGrayEncoder"
  "__ZTI15CMYKGrayEncoder"
  "__ZTS14RGBGrayEncoder"
  "__ZTI14RGBGrayEncoder"
  "__ZN14StructTreeRootD2Ev"
  "__ZN14StructTreeRootD1Ev"
  "__ZN14StructTreeRoot13parentTreeAddERK3RefP13StructElement"
  "__ZNSt6vectorIP13StructElementSaIS1_EE13_M_insert_auxEN9__gnu_cxx17__normal_iteratorIPS1_S3_EERKS1_"
  "__ZNSt6vectorIN14StructTreeRoot6ParentESaIS1_EE14_M_fill_insertEN9__gnu_cxx17__normal_iteratorIPS1_S3_EEjRKS1_"
  "__ZNSt6vectorIN14StructTreeRoot6ParentESaIS1_EEaSERKS3_"
  "__ZNSt6vectorIS_IN14StructTreeRoot6ParentESaIS1_EESaIS3_EE14_M_fill_insertEN9__gnu_cxx17__normal_iteratorIPS3_S5_EEjRKS3_"
  "__ZN14StructTreeRoot5parseEP4Dict"
  "__ZN14StructTreeRootC2EP6PDFDocP4Dict"
  "__ZN14StructTreeRootC1EP6PDFDocP4Dict"
  "__ZN9AttributeC2EPKciP6Object"
  "__ZN9AttributeC1EPKciP6Object"
  "__ZN9AttributeC2ENS_4TypeEP6Object"
  "__ZN9AttributeC1ENS_4TypeEP6Object"
  "__ZN9AttributeD2Ev"
  "__ZN9AttributeD1Ev"
  "__ZNK9Attribute11getTypeNameEv"
  "__ZNK9Attribute12getOwnerNameEv"
  "__ZN9Attribute15getDefaultValueENS_4TypeE"
  "__ZN9Attribute17setFormattedValueEPKc"
  "__ZN9Attribute9checkTypeEP13StructElement"
  "__ZN9Attribute14getTypeForNameEPKcP13StructElement"
  "__ZN9Attribute17parseUserPropertyEP4Dict"
  "__ZN13StructElement10StructDataC2Ev"
  "__ZN13StructElement10StructDataC1Ev"
  "__ZN13StructElementC2EiP14StructTreeRootPS_"
  "__ZN13StructElementC1EiP14StructTreeRootPS_"
  "__ZN13StructElementC2ERK3RefP14StructTreeRootPS_"
  "__ZN13StructElementC1ERK3RefP14StructTreeRootPS_"
  "__ZN13StructElementD2Ev"
  "__ZN13StructElement10StructDataD2Ev"
  "__ZN13StructElementD1Ev"
  "__ZN13StructElement10StructDataD1Ev"
  "__ZNK13StructElement7isBlockEv"
  "__ZNK13StructElement8isInlineEv"
  "__ZNK13StructElement10isGroupingEv"
  "__ZNK13StructElement10hasPageRefEv"
  "__ZNK13StructElement10getPageRefER3Ref"
  "__ZNK13StructElement11getTypeNameEv"
  "__ZNK13StructElement13findAttributeEN9Attribute4TypeEbNS0_5OwnerE"
  "__ZNK13StructElement20getTextSpansInternalER22MarkedContentOutputDev"
  "__ZNSt6vectorIP9AttributeSaIS1_EE13_M_insert_auxEN9__gnu_cxx17__normal_iteratorIPS1_S3_EERKS1_"
  "__ZN13StructElement15parseAttributesEP4Dictb"
  "__ZN13StructElement5parseEP4Dict"
  "__ZN13StructElement10parseChildEP6ObjectS1_RSt3setIiSt4lessIiESaIiEE"
  "__ZN13StructElementC2EP4DictP14StructTreeRootPS_RSt3setIiSt4lessIiESaIiEE"
  "__ZN13StructElement13parseChildrenEP4DictRSt3setIiSt4lessIiESaIiEE"
  "__ZN13StructElementC1EP4DictP14StructTreeRootPS_RSt3setIiSt4lessIiESaIiEE"
  "__ZNK13StructElement17appendSubTreeTextEP9GooStringb"
  "__ZN10UnicodeMap5parseEP9GooString"
  "__ZN10UnicodeMapC2EP9GooString"
  "__ZN10UnicodeMapC1EP9GooString"
  "__ZN10UnicodeMapC2EPKcbP15UnicodeMapRangei"
  "__ZN10UnicodeMapC1EPKcbP15UnicodeMapRangei"
  "__ZN10UnicodeMapC2EPKcbPFijPciE"
  "__ZN10UnicodeMapC1EPKcbPFijPciE"
  "__ZN10UnicodeMapD2Ev"
  "__ZN10UnicodeMapD1Ev"
  "__ZN10UnicodeMap9incRefCntEv"
  "__ZN10UnicodeMap9decRefCntEv"
  "__ZN10UnicodeMap5matchEP9GooString"
  "__ZN10UnicodeMap10mapUnicodeEjPci"
  "__ZN15UnicodeMapCacheC2Ev"
  "__ZN15UnicodeMapCacheC1Ev"
  "__ZN15UnicodeMapCacheD2Ev"
  "__ZN15UnicodeMapCacheD1Ev"
  "__ZN15UnicodeMapCache13getUnicodeMapEP9GooString"
  "__Z12unicodeTypeLj"
  "__Z12unicodeTypeRj"
  "__Z14unicodeTypeNumj"
  "__Z19unicodeTypeAlphaNumj"
  "__Z35unicodeIsAlphabeticPresentationFormj"
  "__Z14unicodeToUpperj"
  "__Z20unicodeNormalizeNFKCPjiPiPS0_b"
  "__Z20unicodeNormalizeNFKCPjiPiPS0_"
  "__Z14UnicodeIsValidj"
  "__Z11UTF16toUCS4PKjiPPj"
  "__Z16TextStringToUCS4P9GooStringPPj"
  "__ZN17ViewerPreferencesC2EP4Dict"
  "__ZN17ViewerPreferencesC1EP4Dict"
  "__ZN17ViewerPreferencesD2Ev"
  "__ZN17ViewerPreferencesD1Ev"
  "__ZN17ViewerPreferences4initEv"
  "__ZNK15ObjectStreamKeyeqERK15PopplerCacheKey"
  "__ZN4XRef15XRefTableWriter12startSectionEii"
  "__ZN4XRef15XRefTableWriter10writeEntryExi13XRefEntryType"
  "__ZN4XRef17XRefPreScanWriter12startSectionEii"
  "__ZN4XRef17XRefPreScanWriter10writeEntryExi13XRefEntryType"
  "__ZN4XRef17XRefPreScanWriterD1Ev"
  "__ZN4XRef16XRefStreamWriterD1Ev"
  "__ZN4XRef15XRefTableWriterD1Ev"
  "__ZN4XRef15XRefTableWriterD0Ev"
  "__ZN4XRef16XRefStreamWriterD0Ev"
  "__ZN4XRef17XRefPreScanWriterD0Ev"
  "__ZN15ObjectStreamKeyD1Ev"
  "__ZTV15ObjectStreamKey"
  "__ZN15ObjectStreamKeyD0Ev"
  "__ZN4XRef16XRefStreamWriter10writeEntryExi13XRefEntryType"
  "__ZN4XRef16XRefStreamWriter12startSectionEii"
  "__ZN6Object8getInt64Ev"
  "__ZN12ObjectStreamD2Ev"
  "__ZN12ObjectStreamD1Ev"
  "__ZN16ObjectStreamItemD1Ev"
  "__ZTV16ObjectStreamItem"
  "__ZN16ObjectStreamItemD0Ev"
  "__ZN12ObjectStream9getObjectEiiP6Object"
  "__ZN4XRef4initEv"
  "__ZN4XRefC2Ev"
  "__ZN4XRefC1Ev"
  "__ZN4XRefC2EP6Object"
  "__ZN4XRefC1EP6Object"
  "__ZN4XRefD2Ev"
  "__ZN4XRefD1Ev"
  "__ZN4XRef7reserveEi"
  "__ZN4XRef4copyEv"
  "__ZN4XRef6resizeEi"
  "__ZN4XRef21readXRefStreamSectionEP6StreamPiii"
  "__ZN4XRef14readXRefStreamEP6StreamPx"
  "__ZN4XRef13constructXRefEPbb"
  "__ZN4XRef13setEncryptionEibPhiii14CryptAlgorithm"
  "__ZN4XRef23getEncryptionParametersEPPhP14CryptAlgorithmPi"
  "__ZN4XRef9okToPrintEb"
  "__ZN4XRef16okToPrintHighResEb"
  "__ZN4XRef10okToChangeEb"
  "__ZN4XRef8okToCopyEb"
  "__ZN4XRef12okToAddNotesEb"
  "__ZN4XRef12okToFillFormEb"
  "__ZN4XRef17okToAccessibilityEb"
  "__ZN4XRef12okToAssembleEb"
  "__ZN4XRef4lockEv"
  "__ZN4XRef6unlockEv"
  "__ZN4XRef10getDocInfoEP6Object"
  "__ZN4XRef12getDocInfoNFEP6Object"
  "__ZN4XRef12getStreamEndExPx"
  "__ZN4XRef15XRefTableWriterC2EP9OutStream"
  "__ZTVN4XRef15XRefTableWriterE"
  "__ZN4XRef15XRefTableWriterC1EP9OutStream"
  "__ZN4XRef16XRefStreamWriterC2EP6ObjectP9GooStringi"
  "__ZTVN4XRef16XRefStreamWriterE"
  "__ZN4XRef16XRefStreamWriterC1EP6ObjectP9GooStringi"
  "__ZN4XRef17XRefPreScanWriterC2Ev"
  "__ZTVN4XRef17XRefPreScanWriterE"
  "__ZN4XRef17XRefPreScanWriterC1Ev"
  "__ZN4XRef10parseEntryExP9XRefEntry"
  "__ZNSt6vectorIxSaIxEE13_M_insert_auxEN9__gnu_cxx17__normal_iteratorIPxS1_EERKx"
  "__ZN4XRef13readXRefTableEP6ParserPxPSt6vectorIxSaIxEEPS3_IiSaIiEE"
  "__ZN4XRef8readXRefEPxPSt6vectorIxSaIxEEPS1_IiSaIiEE"
  "__ZN4XRefC2EP10BaseStreamxxPbb"
  "__ZN4XRefC1EP10BaseStreamxxPbb"
  "__ZN4XRef13readXRefUntilEiPSt6vectorIiSaIiEE"
  "__ZN4XRef8getEntryEib"
  "__ZN4XRef5fetchEiiP6Objecti"
  "__ZN12ObjectStreamC2EP4XRefii"
  "__ZN12ObjectStreamC1EP4XRefii"
  "__ZN4XRef10getCatalogEP6Object"
  "__ZN4XRef11getNumEntryEx"
  "__ZN4XRef3addEiixb"
  "__ZN4XRef17setModifiedObjectEP6Object3Ref"
  "__ZN4XRef17addIndirectObjectEP6Object"
  "__ZN4XRef20removeIndirectObjectE3Ref"
  "__ZN4XRef13removeDocInfoEv"
  "__ZN4XRef25createDocInfoIfNoneExistsEP6Object"
  "__ZN4XRef9writeXRefEPNS_10XRefWriterEb"
  "__ZN4XRef16writeTableToFileEP9OutStreamb"
  "__ZN4XRef19writeStreamToBufferEP9GooStringP4DictPS_"
  "__ZN4XRef15markUnencryptedEP6Object"
  "__ZN4XRef15markUnencryptedEv"
  "__ZN4XRef16scanSpecialFlagsEv"
  "__ZTIN4XRef10XRefWriterE"
  "__ZTSN4XRef10XRefWriterE"
  "__ZTSN4XRef15XRefTableWriterE"
  "__ZTIN4XRef15XRefTableWriterE"
  "__ZTSN4XRef16XRefStreamWriterE"
  "__ZTIN4XRef16XRefStreamWriterE"
  "__ZTSN4XRef17XRefPreScanWriterE"
  "__ZTIN4XRef17XRefPreScanWriterE"
  "__ZTI15ObjectStreamKey"
  "__ZTS15ObjectStreamKey"
  "__ZTI16ObjectStreamItem"
  "__ZTS16ObjectStreamItem"
  "__ZN11PSOutputDev4isOkEv"
  "__ZN11PSOutputDev10upsideDownEv"
  "__ZN11PSOutputDev11useDrawCharEv"
  "__ZN11PSOutputDev20useTilingPatternFillEv"
  "__ZN11PSOutputDev14useShadedFillsEi"
  "__ZN11PSOutputDev11useDrawFormEv"
  "__ZN11PSOutputDev19interpretType3CharsEv"
  "__ZN11PSOutputDev17needClipToCropBoxEv"
  "__ZN14DeviceNRecoder7getKindEv"
  "__ZN14DeviceNRecoder11getPSFilterEiPKc"
  "__ZN14DeviceNRecoder8isBinaryEb"
  "__ZN14DeviceNRecoder9isEncoderEv"
  "__ZN11PSOutputDev15beginTextObjectEP8GfxState"
  "__ZN14DeviceNRecoderD2Ev"
  "__ZTV14DeviceNRecoder"
  "__ZN14DeviceNRecoderD1Ev"
  "__ZN14DeviceNRecoderD0Ev"
  "__ZN14DeviceNRecoder5resetEv"
  "__ZN14DeviceNRecoder7getCharEv"
  "__ZN14DeviceNRecoder8lookCharEv"
  "__ZN16PSOutCustomColorC2EddddP9GooString"
  "__ZN16PSOutCustomColorC1EddddP9GooString"
  "__ZN16PSOutCustomColorD2Ev"
  "__ZN16PSOutCustomColorD1Ev"
  "__ZN14DeviceNRecoderC2EP6StreamiiP16GfxImageColorMap"
  "__ZN14DeviceNRecoderC1EP6StreamiiP16GfxImageColorMap"
  "__ZN14DeviceNRecoder7fillBufEv"
  "__ZN11PSOutputDev15addProcessColorEdddd"
  "__ZN11PSOutputDev14addCustomColorEP23GfxSeparationColorSpace"
  "__ZN11PSOutputDev12opiTransformEP8GfxStateddPdS2_"
  "__ZN11PSOutputDev11writePSCharEc"
  "__ZN11PSOutputDev9psXObjectEP6StreamS1_"
  "__ZN11PSOutputDev7writePSEPKc"
  "__ZN11PSOutputDev16writePageTrailerEv"
  "__ZN11PSOutputDev9saveStateEP8GfxState"
  "__ZN11PSOutputDev12restoreStateEP8GfxState"
  "__ZN11PSOutputDev11saveTextPosEP8GfxState"
  "__ZN11PSOutputDev14restoreTextPosEP8GfxState"
  "__ZN11PSOutputDev13endTextObjectEP8GfxState"
  "__ZN11PSOutputDev26unsetSoftMaskFromImageMaskEP8GfxStatePd"
  "__ZN11PSOutputDev6opiEndEP8GfxStateP4Dict"
  "__ZN11PSOutputDev7type3D1EP8GfxStatedddddd"
  "__ZN11PSOutputDev7endPageEv"
  "__ZN11PSOutputDev10writePSBufEPKci"
  "__ZN11PSOutputDev10writePSFmtEPKcz"
  "__ZN11PSOutputDev16writeXpdfProcsetEv"
  "__ZN11PSOutputDev22setupEmbeddedType1FontEP3RefP9GooString"
  "__ZN11PSOutputDev22setupExternalType1FontEP9GooStringS1_"
  "__ZN11PSOutputDev23setupEmbeddedType1CFontEP7GfxFontP3RefP9GooString"
  "__ZN11PSOutputDev28setupEmbeddedOpenTypeT1CFontEP7GfxFontP3RefP9GooString"
  "__ZN11PSOutputDev25setupEmbeddedTrueTypeFontEP7GfxFontP3RefP9GooString"
  "__ZN11PSOutputDev25setupExternalTrueTypeFontEP7GfxFontP9GooStringS3_"
  "__ZN11PSOutputDev28setupExternalCIDTrueTypeFontEP7GfxFontP9GooStringS3_b"
  "__ZN11PSOutputDev25setupEmbeddedCIDType0FontEP7GfxFontP3RefP9GooString"
  "__ZN11PSOutputDev28setupEmbeddedCIDTrueTypeFontEP7GfxFontP3RefP9GooStringb"
  "__ZN11PSOutputDev28setupEmbeddedOpenTypeCFFFontEP7GfxFontP3RefP9GooString"
  "__ZN11PSOutputDev10setupImageE3RefP6Streamb"
  "__ZN11PSOutputDev11setupImagesEP4Dict"
  "__ZN11PSOutputDev9setupFormE3RefP6Object"
  "__ZN11PSOutputDev10setupFormsEP4Dict"
  "__ZN11PSOutputDev9updateCTMEP8GfxStatedddddd"
  "__ZN11PSOutputDev14updateLineDashEP8GfxState"
  "__ZN11PSOutputDev14updateFlatnessEP8GfxState"
  "__ZN11PSOutputDev14updateLineJoinEP8GfxState"
  "__ZN11PSOutputDev13updateLineCapEP8GfxState"
  "__ZN11PSOutputDev16updateMiterLimitEP8GfxState"
  "__ZN11PSOutputDev15updateLineWidthEP8GfxState"
  "__ZN11PSOutputDev15updateFillColorEP8GfxState"
  "__ZN11PSOutputDev17updateStrokeColorEP8GfxState"
  "__ZN11PSOutputDev19updateFillOverprintEP8GfxState"
  "__ZN11PSOutputDev21updateStrokeOverprintEP8GfxState"
  "__ZN11PSOutputDev19updateOverprintModeEP8GfxState"
  "__ZN11PSOutputDev10updateFontEP8GfxState"
  "__ZN11PSOutputDev13updateTextMatEP8GfxState"
  "__ZN11PSOutputDev15updateCharSpaceEP8GfxState"
  "__ZN11PSOutputDev12updateRenderEP8GfxState"
  "__ZN11PSOutputDev10updateRiseEP8GfxState"
  "__ZN11PSOutputDev15updateWordSpaceEP8GfxState"
  "__ZN11PSOutputDev18updateHorizScalingEP8GfxState"
  "__ZN11PSOutputDev13updateTextPosEP8GfxState"
  "__ZN11PSOutputDev15updateTextShiftEP8GfxStated"
  "__ZN11PSOutputDev19tilingPatternFillL1EP8GfxStateP7CatalogP6ObjectPdiiP4DictS6_S6_iiiidd"
  "__ZN11PSOutputDev19tilingPatternFillL2EP8GfxStateP7CatalogP6ObjectPdiiP4DictS6_S6_iiiidd"
  "__ZN11PSOutputDev17tilingPatternFillEP8GfxStateP3GfxP7CatalogP6ObjectPdiiP4DictS8_S8_iiiidd"
  "__ZN11PSOutputDev6doPathEP7GfxPath"
  "__ZN11PSOutputDev6strokeEP8GfxState"
  "__ZN11PSOutputDev4fillEP8GfxState"
  "__ZN11PSOutputDev6eoFillEP8GfxState"
  "__ZN11PSOutputDev4clipEP8GfxState"
  "__ZN11PSOutputDev6eoClipEP8GfxState"
  "__ZN11PSOutputDev16clipToStrokePathEP8GfxState"
  "__ZN11PSOutputDev18maskToClippingPathEP6Streamiib"
  "__ZN11PSOutputDev24setSoftMaskFromImageMaskEP8GfxStateP6ObjectP6StreamiibbPd"
  "__ZN11PSOutputDev9doImageL1EP6ObjectP16GfxImageColorMapbbP6StreamiiiPiS5_iib"
  "__ZN11PSOutputDev12doImageL1SepEP6ObjectP16GfxImageColorMapbbP6StreamiiiPiS5_iib"
  "__ZN11PSOutputDev7type3D0EP8GfxStatedd"
  "__ZN11PSOutputDev8drawFormE3Ref"
  "__ZN11PSOutputDev11cvtFunctionEP8Functionb"
  "__ZN11PSOutputDev14updateTransferEP8GfxState"
  "__ZN11PSOutputDev18functionShadedFillEP8GfxStateP18GfxFunctionShading"
  "__ZN11PSOutputDev15axialShadedFillEP8GfxStateP15GfxAxialShadingdd"
  "__ZN11PSOutputDev16radialShadedFillEP8GfxStateP16GfxRadialShadingdd"
  "__ZN11PSOutputDev13writePSStringEP9GooString"
  "__ZN11PSOutputDev12writeTrailerEv"
  "__ZN11PSOutputDev10drawStringEP8GfxStateP9GooString"
  "__ZN11PSOutputDev16dumpColorSpaceL2EP13GfxColorSpacebbb"
  "__ZN11PSOutputDev20updateFillColorSpaceEP8GfxState"
  "__ZN11PSOutputDev22updateStrokeColorSpaceEP8GfxState"
  "__ZN11PSOutputDev9doImageL2EP6ObjectP16GfxImageColorMapbbP6StreamiiiPiS5_iib"
  "__ZN11PSOutputDev9doImageL3EP6ObjectP16GfxImageColorMapbbP6StreamiiiPiS5_iib"
  "__ZN11PSOutputDev13drawImageMaskEP8GfxStateP6ObjectP6Streamiibbb"
  "__ZN11PSOutputDev9drawImageEP8GfxStateP6ObjectP6StreamiiP16GfxImageColorMapbPib"
  "__ZN11PSOutputDev15drawMaskedImageEP8GfxStateP6ObjectP6StreamiiP16GfxImageColorMapbS5_iibb"
  "__ZN11PSOutputDev10opiBegin20EP8GfxStateP4Dict"
  "__ZN11PSOutputDev10opiBegin13EP8GfxStateP4Dict"
  "__ZN11PSOutputDev8opiBeginEP8GfxStateP4Dict"
  "__ZN11PSOutputDev11writePSNameEPKc"
  "__ZN11PSOutputDev12filterPSNameEP9GooString"
  "__ZN11PSOutputDev14makePSFontNameEP7GfxFontP3Ref"
  "__ZN11PSOutputDev13filterPSLabelEP9GooStringPb"
  "__ZN11PSOutputDev15writePSTextLineEP9GooString"
  "__ZN11PSOutputDev11writeHeaderERKSt6vectorIiSaIiEEP12PDFRectangleS6_iPc"
  "__ZNSt6vectorIiSaIiEEaSERKS1_"
  "__ZN11PSOutputDev4initEPFvPvPKciES0_10PSFileTypePcP6PDFDocRKSt6vectorIiSaIiEE9PSOutModeiiiibiibb"
  "__ZN11PSOutputDevC2EPKcP6PDFDocPcRKSt6vectorIiSaIiEE9PSOutModeiibbiiiibbPFP9GooStringPS_23PSOutCustomCodeLocationiPvESF_"
  "__ZTV11PSOutputDev"
  "__ZN11PSOutputDevC1EPKcP6PDFDocPcRKSt6vectorIiSaIiEE9PSOutModeiibbiiiibbPFP9GooStringPS_23PSOutCustomCodeLocationiPvESF_"
  "__ZN11PSOutputDevC2EPFvPvPKciES0_PcP6PDFDocRKSt6vectorIiSaIiEE9PSOutModeiibbiiiibbPFP9GooStringPS_23PSOutCustomCodeLocationiS0_ES0_"
  "__ZN11PSOutputDevC1EPFvPvPKciES0_PcP6PDFDocRKSt6vectorIiSaIiEE9PSOutModeiibbiiiibbPFP9GooStringPS_23PSOutCustomCodeLocationiS0_ES0_"
  "__ZNSt8_Rb_treeIiSt4pairIKiiESt10_Select1stIS2_ESt4lessIiESaIS2_EE8_M_eraseEPSt13_Rb_tree_nodeIS2_E"
  "__ZN11PSOutputDev14setupResourcesEP4Dict"
  "__ZN11PSOutputDev10setupFontsEP4Dict"
  "__ZN11PSOutputDev13writeDocSetupEP6PDFDocP7CatalogRKSt6vectorIiSaIiEEb"
  "__ZN11PSOutputDev14setupType3FontEP7GfxFontP9GooStringP4Dict"
  "__ZN11PSOutputDev9setupFontEP7GfxFontP4Dict"
  "__ZNSt8_Rb_treeIiSt4pairIKiiESt10_Select1stIS2_ESt4lessIiESaIS2_EE24_M_get_insert_unique_posERS1_"
  "__ZNSt8_Rb_treeIiSt4pairIKiiESt10_Select1stIS2_ESt4lessIiESaIS2_EE10_M_insert_EPSt18_Rb_tree_node_baseSA_RKS2_"
  "__ZN11PSOutputDev8postInitEv"
  "__ZN11PSOutputDevD2Ev"
  "__ZN11PSOutputDevD1Ev"
  "__ZN11PSOutputDevD0Ev"
  "__ZN11PSOutputDev14checkPageSliceEP4PageddibbiiiibPFbPvES2_PFbP5AnnotS2_ES2_"
  "__ZNSt8_Rb_treeIiSt4pairIKiiESt10_Select1stIS2_ESt4lessIiESaIS2_EE29_M_get_insert_hint_unique_posESt23_Rb_tree_const_iteratorIS2_ERS1_"
  "__ZN11PSOutputDev9startPageEiP8GfxStateP4XRef"
  "__ZTS11PSOutputDev"
  "__ZTI11PSOutputDev"
  "__ZTS14DeviceNRecoder"
  "__ZTI14DeviceNRecoder"
  "__ZN13TextOutputDev4isOkEv"
  "__ZN13TextOutputDev10upsideDownEv"
  "__ZN13TextOutputDev11useDrawCharEv"
  "__ZN13TextOutputDev19interpretType3CharsEv"
  "__ZN13TextOutputDev11needNonTextEv"
  "__ZN13TextOutputDev13needCharCountEv"
  "__ZN8TextWord5cmpYXEPKvS1_"
  "__ZN12TextLineFrag15cmpYXPrimaryRotEPKvS1_"
  "__ZN12TextLineFrag12cmpYXLineRotEPKvS1_"
  "__ZN12TextLineFrag12cmpXYLineRotEPKvS1_"
  "__ZN12TextLineFrag21cmpXYColumnPrimaryRotEPKvS1_"
  "__ZN12TextLineFrag18cmpXYColumnLineRotEPKvS1_"
  "__ZN9TextBlock15cmpXYPrimaryRotEPKvS1_"
  "__ZN19TextSelectionDumper10visitBlockEP9TextBlockP8TextLineS3_P12PDFRectangle"
  "__ZN18TextSelectionSizerD1Ev"
  "__ZN18TextSelectionSizer10visitBlockEP9TextBlockP8TextLineS3_P12PDFRectangle"
  "__ZN18TextSelectionSizer9visitWordEP8TextWordiiP12PDFRectangle"
  "__ZN20TextSelectionPainter10visitBlockEP9TextBlockP8TextLineS3_P12PDFRectangle"
  "__ZN13TextOutputDev11beginStringEP8GfxStateP9GooString"
  "__ZN13TextOutputDev9endStringEP8GfxState"
  "__ZN13TextOutputDev12incCharCountEi"
  "__ZN18TextSelectionSizerD0Ev"
  "__ZN19TextSelectionDumper9visitWordEP8TextWordiiP12PDFRectangle"
  "__ZN20TextSelectionPainter9visitWordEP8TextWordiiP12PDFRectangle"
  "__ZN19TextSelectionDumperD2Ev"
  "__ZTV19TextSelectionDumper"
  "__ZN19TextSelectionDumperD1Ev"
  "__ZN19TextSelectionDumperD0Ev"
  "__ZN18TextSelectionSizer9visitLineEP8TextLineP8TextWordS3_iiP12PDFRectangle"
  "__ZN20TextSelectionPainterD2Ev"
  "__ZTV20TextSelectionPainter"
  "__ZN20TextSelectionPainterD1Ev"
  "__ZN20TextSelectionPainterD0Ev"
  "__ZN20TextSelectionPainter9visitLineEP8TextLineP8TextWordS3_iiP12PDFRectangle"
  "__ZN13TextOutputDev6eoFillEP8GfxState"
  "__ZN12TextFontInfoC2EP8GfxState"
  "__ZN12TextFontInfoC1EP8GfxState"
  "__ZN12TextFontInfoD2Ev"
  "__ZN12TextFontInfoD1Ev"
  "__ZN12TextFontInfo7matchesEP8GfxState"
  "__ZN12TextFontInfo7matchesEPS_"
  "__ZN12TextFontInfo9getAscentEv"
  "__ZN12TextFontInfo10getDescentEv"
  "__ZN12TextFontInfo8getWModeEv"
  "__ZN8TextWordC2EP8GfxStateid"
  "__ZN8TextWordC1EP8GfxStateid"
  "__ZN8TextWordD2Ev"
  "__ZN8TextWordD1Ev"
  "__ZN8TextWord16setInitialBoundsEP12TextFontInfodd"
  "__ZN8TextWord14ensureCapacityEi"
  "__ZN8TextWord7addCharEP8GfxStateP12TextFontInfoddddiijjRK6Matrix"
  "__Z16getCombiningCharj"
  "__ZN8TextWord12addCombiningEP8GfxStateP12TextFontInfodddddiijjRK6Matrix"
  "__ZN8TextWord5mergeEPS_"
  "__ZN8TextWord12primaryDeltaEPS_"
  "__ZN8TextWord7getTextEv"
  "__ZN8TextWord11getCharBBoxEiPdS0_S0_S0_"
  "__ZN8TextPoolC2Ev"
  "__ZN8TextPoolC1Ev"
  "__ZN8TextPoolD2Ev"
  "__ZN8TextPoolD1Ev"
  "__ZN8TextPool10getBaseIdxEd"
  "__ZN8TextPool7addWordEP8TextWord"
  "__ZN8TextLineC2EP9TextBlockid"
  "__ZN8TextLineC1EP9TextBlockid"
  "__ZN8TextLineD2Ev"
  "__ZN8TextLineD1Ev"
  "__ZN8TextLine7addWordEP8TextWord"
  "__ZN8TextLine12primaryDeltaEPS_"
  "__ZN8TextLine10primaryCmpEPS_"
  "__ZN8TextLine12secondaryCmpEPS_"
  "__ZN8TextLine5cmpXYEPKvS1_"
  "__ZN8TextLine5cmpYXEPS_"
  "__ZN8TextLine8coalesceEP10UnicodeMap"
  "__ZN12TextLineFrag4initEP8TextLineii"
  "__ZN12TextLineFrag13computeCoordsEb"
  "__ZN9TextBlockC2EP8TextPagei"
  "__ZN9TextBlockC1EP8TextPagei"
  "__ZN9TextBlockD2Ev"
  "__ZN9TextBlockD1Ev"
  "__ZN9TextBlock7addWordEP8TextWord"
  "__ZN9TextBlock8coalesceEP10UnicodeMapd"
  "__ZN9TextBlock15updatePriMinMaxEPS_"
  "__ZN9TextBlock15cmpYXPrimaryRotEPKvS1_"
  "__ZN9TextBlock10primaryCmpEPS_"
  "__ZN9TextBlock14secondaryDeltaEPS_"
  "__ZN9TextBlock7isBelowEPS_"
  "__ZN9TextBlock15isBeforeByRule1EPS_"
  "__ZN9TextBlock15isBeforeByRule2EPS_"
  "__ZN9TextBlock15visitDepthFirstEPS_iPS0_iPbS1_i"
  "__ZN9TextBlock15visitDepthFirstEPS_iPS0_iPb"
  "__ZN8TextFlowC2EP8TextPageP9TextBlock"
  "__ZN8TextFlowC1EP8TextPageP9TextBlock"
  "__ZN8TextFlowD2Ev"
  "__ZN8TextFlowD1Ev"
  "__ZN8TextFlow8addBlockEP9TextBlock"
  "__ZN8TextFlow9blockFitsEP9TextBlockS1_"
  "__ZN12TextWordListC2EP8TextPageb"
  "__ZN12TextWordListC1EP8TextPageb"
  "__ZN12TextWordListD2Ev"
  "__ZN12TextWordListD1Ev"
  "__ZN12TextWordList9getLengthEv"
  "__ZN12TextWordList3getEi"
  "__ZN8TextPageC2Eb"
  "__ZN8TextPageC1Eb"
  "__ZN8TextPage9incRefCntEv"
  "__ZN8TextPage5clearEv"
  "__ZN8TextPageD2Ev"
  "__ZN8TextPageD1Ev"
  "__ZN8TextPage9decRefCntEv"
  "__ZN8TextPage9startPageEP8GfxState"
  "__ZN13TextOutputDev9startPageEiP8GfxStateP4XRef"
  "__ZN8TextPage10updateFontEP8GfxState"
  "__ZN13TextOutputDev12restoreStateEP8GfxState"
  "__ZN13TextOutputDev10updateFontEP8GfxState"
  "__ZN8TextPage9beginWordEP8GfxState"
  "__ZN8TextPage12incCharCountEi"
  "__ZN8TextPage7addWordEP8TextWord"
  "__ZN8TextPage7endWordEv"
  "__ZN8TextPage7endPageEv"
  "__ZN8TextPage7addCharEP8GfxStateddddjiPji"
  "__ZN8TextPage12addUnderlineEdddd"
  "__ZN13TextOutputDev6strokeEP8GfxState"
  "__ZN13TextOutputDev4fillEP8GfxState"
  "__ZN8TextPage7addLinkEiiiiP9AnnotLink"
  "__ZN13TextOutputDev11processLinkEP9AnnotLink"
  "__ZN8TextPage8coalesceEbdb"
  "__ZN8TextPage8findTextEPjibbbbbbbPdS1_S1_S1_"
  "__ZN20TextSelectionVisitorC2EP8TextPage"
  "__ZTV20TextSelectionVisitor"
  "__ZN20TextSelectionVisitorC1EP8TextPage"
  "__ZN19TextSelectionDumperC2EP8TextPage"
  "__ZN19TextSelectionDumperC1EP8TextPage"
  "__ZN19TextSelectionDumper10finishLineEv"
  "__ZN19TextSelectionDumper9startLineEv"
  "__ZN19TextSelectionDumper9visitLineEP8TextLineP8TextWordS3_iiP12PDFRectangle"
  "__ZN19TextSelectionDumper7endPageEv"
  "__ZN19TextSelectionDumper12takeWordListEPi"
  "__ZN18TextSelectionSizerC2EP8TextPaged"
  "__ZTV18TextSelectionSizer"
  "__ZN18TextSelectionSizerC1EP8TextPaged"
  "__ZN20TextSelectionPainterC2EP8TextPagediP9OutputDevP8GfxColorS5_"
  "__ZN20TextSelectionPainterC1EP8TextPagediP9OutputDevP8GfxColorS5_"
  "__ZN20TextSelectionPainter7endPageEv"
  "__ZN8TextWord14visitSelectionEP20TextSelectionVisitorP12PDFRectangle14SelectionStyle"
  "__ZN8TextLine14visitSelectionEP20TextSelectionVisitorP12PDFRectangle14SelectionStyle"
  "__ZN9TextBlock14visitSelectionEP20TextSelectionVisitorP12PDFRectangle14SelectionStyle"
  "__ZN8TextPage14visitSelectionEP20TextSelectionVisitorP12PDFRectangle14SelectionStyle"
  "__ZN8TextPage13drawSelectionEP9OutputDevdiP12PDFRectangle14SelectionStyleP8GfxColorS6_"
  "__ZN8TextPage18getSelectionRegionEP12PDFRectangle14SelectionStyled"
  "__ZN8TextPage17getSelectionWordsEP12PDFRectangle14SelectionStylePi"
  "__ZN8TextPage13findCharRangeEiiPdS0_S0_S0_"
  "__ZN8TextPage17setMergeCombiningEb"
  "__ZN8TextPage13assignColumnsEP12TextLineFragib"
  "__ZN8TextPage12dumpFragmentEPjiP10UnicodeMapP9GooString"
  "__ZN8TextPage7getTextEdddd"
  "__ZN19TextSelectionDumper7getTextEv"
  "__ZN8TextPage16getSelectionTextEP12PDFRectangle14SelectionStyle"
  "__ZN8TextPage4dumpEPvPFvS0_PKciEb"
  "__ZN13TextOutputDev7endPageEv"
  "__ZN8TextPage12makeWordListEb"
  "__ZN10ActualTextC2EP8TextPage"
  "__ZN10ActualTextC1EP8TextPage"
  "__ZN10ActualTextD2Ev"
  "__ZN10ActualTextD1Ev"
  "__ZN13TextOutputDevD2Ev"
  "__ZTV13TextOutputDev"
  "__ZN13TextOutputDevD1Ev"
  "__ZN13TextOutputDevD0Ev"
  "__ZN10ActualText7addCharEP8GfxStateddddjiPji"
  "__ZN13TextOutputDev8drawCharEP8GfxStateddddddjiPji"
  "__ZN10ActualText5beginEP8GfxStateP9GooString"
  "__ZN13TextOutputDev15beginActualTextEP8GfxStateP9GooString"
  "__ZN10ActualText3endEP8GfxState"
  "__ZN13TextOutputDev13endActualTextEP8GfxState"
  "__ZN13TextOutputDevC2EPcbdbb"
  "__ZN13TextOutputDevC1EPcbdbb"
  "__ZN13TextOutputDevC2EPFvPvPKciES0_bdb"
  "__ZN13TextOutputDevC1EPFvPvPKciES0_bdb"
  "__ZN13TextOutputDev8findTextEPjibbbbbbbPdS1_S1_S1_"
  "__ZN13TextOutputDev7getTextEdddd"
  "__ZN13TextOutputDev13drawSelectionEP9OutputDevdiP12PDFRectangle14SelectionStyleP8GfxColorS6_"
  "__ZN13TextOutputDev18getSelectionRegionEP12PDFRectangle14SelectionStyled"
  "__ZN13TextOutputDev16getSelectionTextEP12PDFRectangle14SelectionStyle"
  "__ZN13TextOutputDev13findCharRangeEiiPdS0_S0_S0_"
  "__ZN13TextOutputDev17setMergeCombiningEb"
  "__ZN13TextOutputDev12makeWordListEv"
  "__ZN13TextOutputDev8takeTextEv"
  "__ZTS13TextOutputDev"
  "__ZTI13TextOutputDev"
  "__ZTI20TextSelectionVisitor"
  "__ZTS20TextSelectionVisitor"
  "__ZTS19TextSelectionDumper"
  "__ZTI19TextSelectionDumper"
  "__ZTS18TextSelectionSizer"
  "__ZTI18TextSelectionSizer"
  "__ZTS20TextSelectionPainter"
  "__ZTI20TextSelectionPainter"
  "__ZN22MarkedContentOutputDev4isOkEv"
  "__ZN22MarkedContentOutputDev10upsideDownEv"
  "__ZN22MarkedContentOutputDev11useDrawCharEv"
  "__ZN22MarkedContentOutputDev19interpretType3CharsEv"
  "__ZN22MarkedContentOutputDev11needNonTextEv"
  "__ZN22MarkedContentOutputDev13needCharCountEv"
  "__ZN22MarkedContentOutputDev7endPageEv"
  "__ZN22MarkedContentOutputDev9startPageEiP8GfxStateP4XRef"
  "__ZN22MarkedContentOutputDevD2Ev"
  "__ZTV22MarkedContentOutputDev"
  "__ZN22MarkedContentOutputDevD1Ev"
  "__ZN22MarkedContentOutputDevD0Ev"
  "__ZN22MarkedContentOutputDevC2Ei"
  "__ZN22MarkedContentOutputDevC1Ei"
  "__ZNK22MarkedContentOutputDev14needFontChangeEP7GfxFont"
  "__ZNK22MarkedContentOutputDev12getTextSpansEv"
  "__ZNSt6vectorI8TextSpanSaIS0_EE13_M_insert_auxEN9__gnu_cxx17__normal_iteratorIPS0_S2_EERKS0_"
  "__ZN22MarkedContentOutputDev7endSpanEv"
  "__ZN22MarkedContentOutputDev16endMarkedContentEP8GfxState"
  "__ZN22MarkedContentOutputDev8drawCharEP8GfxStateddddddjiPji"
  "__ZN22MarkedContentOutputDev18beginMarkedContentEPcP4Dict"
  "__ZTS22MarkedContentOutputDev"
  "__ZTI22MarkedContentOutputDev"
  "__ZN13PageLabelInfo8IntervalC2EP6Objecti"
  "__ZN13PageLabelInfo8IntervalC1EP6Objecti"
  "__ZN13PageLabelInfo8IntervalD2Ev"
  "__ZN13PageLabelInfo8IntervalD1Ev"
  "__ZN13PageLabelInfoD2Ev"
  "__ZN13PageLabelInfoD1Ev"
  "__ZN13PageLabelInfo5parseEP6Object"
  "__ZN13PageLabelInfoC2EP6Objecti"
  "__ZN13PageLabelInfoC1EP6Objecti"
  "__ZN13PageLabelInfo12labelToIndexEP9GooStringPi"
  "__ZN13PageLabelInfo12indexToLabelEiP9GooString"
  "__ZN15SecurityHandler13isUnencryptedEv"
  "__ZN23StandardSecurityHandler18getPermissionFlagsEv"
  "__ZN23StandardSecurityHandler18getOwnerPasswordOkEv"
  "__ZN23StandardSecurityHandler10getFileKeyEv"
  "__ZN23StandardSecurityHandler16getFileKeyLengthEv"
  "__ZN23StandardSecurityHandler13getEncVersionEv"
  "__ZN23StandardSecurityHandler14getEncRevisionEv"
  "__ZN23StandardSecurityHandler15getEncAlgorithmEv"
  "__ZN23StandardSecurityHandler13isUnencryptedEv"
  "__ZN23StandardSecurityHandler11getAuthDataEv"
  "__ZN23StandardSecurityHandlerD2Ev"
  "__ZTV23StandardSecurityHandler"
  "__ZN23StandardSecurityHandlerD1Ev"
  "__ZN23StandardSecurityHandlerD0Ev"
  "__ZN23StandardSecurityHandler12freeAuthDataEPv"
  "__ZN23StandardSecurityHandler12makeAuthDataEP9GooStringS1_"
  "__ZN23StandardSecurityHandler9authorizeEPv"
  "__ZN15SecurityHandlerC2EP6PDFDoc"
  "__ZTV15SecurityHandler"
  "__ZN15SecurityHandlerC1EP6PDFDoc"
  "__ZN15SecurityHandlerD2Ev"
  "__ZN15SecurityHandlerD1Ev"
  "__ZN15SecurityHandlerD0Ev"
  "__ZN15SecurityHandler15checkEncryptionEP9GooStringS1_"
  "__ZN23StandardSecurityHandlerC2EP6PDFDocP6Object"
  "__ZN23StandardSecurityHandlerC1EP6PDFDocP6Object"
  "__ZN15SecurityHandler4makeEP6PDFDocP6Object"
  "__ZTS15SecurityHandler"
  "__ZTI15SecurityHandler"
  "__ZTS23StandardSecurityHandler"
  "__ZTI23StandardSecurityHandler"
  "__ZN5SoundC2EP6Objectb"
  "__ZN5SoundC1EP6Objectb"
  "__ZN5Sound10parseSoundEP6Object"
  "__ZN5SoundD2Ev"
  "__ZN5SoundD1Ev"
  "__ZN5Sound9getStreamEv"
  "__ZN5Sound4copyEv"
  "__ZN7GooHashC2Eb"
  "__ZN7GooHashC1Eb"
  "__ZN7GooHashD2Ev"
  "__ZN7GooHashD1Ev"
  "__ZN7GooHash9startIterEPP11GooHashIter"
  "__ZN7GooHash7getNextEPP11GooHashIterPP9GooStringPPv"
  "__ZN7GooHash7getNextEPP11GooHashIterPP9GooStringPi"
  "__ZN7GooHash8killIterEPP11GooHashIter"
  "__ZN7GooHash6expandEv"
  "__ZN7GooHash3addEP9GooStringPv"
  "__ZN7GooHash3addEP9GooStringi"
  "__ZN7GooHash4findEP9GooStringPi"
  "__ZN7GooHash7replaceEP9GooStringPv"
  "__ZN7GooHash7replaceEP9GooStringi"
  "__ZN7GooHash6lookupEP9GooString"
  "__ZN7GooHash9lookupIntEP9GooString"
  "__ZN7GooHash6removeEP9GooString"
  "__ZN7GooHash9removeIntEP9GooString"
  "__ZN7GooHash4findEPKcPi"
  "__ZN7GooHash6lookupEPKc"
  "__ZN7GooHash9lookupIntEPKc"
  "__ZN7GooHash6removeEPKc"
  "__ZN7GooHash9removeIntEPKc"
  "__ZN7GooHash4hashEP9GooString"
  "__ZN7GooHash4hashEPKc"
  "__ZN7GooListC2Ev"
  "__ZN7GooListC1Ev"
  "__ZN7GooListC2Ei"
  "__ZN7GooListC1Ei"
  "__ZN7GooListD2Ev"
  "__ZN7GooListD1Ev"
  "__ZN7GooList4copyEv"
  "__ZN7GooList4sortEPFiPKvS1_E"
  "__ZN7GooList7reverseEv"
  "__ZN7GooList6expandEv"
  "__ZN7GooList6appendEPv"
  "__ZN7GooList6appendEPS_"
  "__ZN7GooList6insertEiPv"
  "__ZN7GooList6shrinkEv"
  "__ZN7GooList3delEi"
  "__ZN9GooString3SetEPKci"
  "__ZN9GooStringC2Ev"
  "__ZN9GooStringC1Ev"
  "__ZN9GooStringC2EPKc"
  "__ZN9GooStringC1EPKc"
  "__ZN9GooStringC2EPKci"
  "__ZN9GooStringC1EPKci"
  "__ZN9GooStringC2EPS_ii"
  "__ZN9GooStringC1EPS_ii"
  "__ZN9GooStringC2EPKS_"
  "__ZN9GooStringC1EPKS_"
  "__ZN9GooStringC2EPS_S0_"
  "__ZN9GooStringC1EPS_S0_"
  "__ZN9GooStringD2Ev"
  "__ZN9GooStringD1Ev"
  "__ZN9GooString5clearEv"
  "__ZN9GooString6appendEPKci"
  "__ZN9GooString6appendEc"
  "__ZN9GooString6appendEPS_"
  "__ZN9GooString9formatIntExPcibiiPS0_Pib"
  "__ZN9GooString7fromIntEi"
  "__ZN9GooString10formatUIntEyPcibiiPS0_Pib"
  "__ZN9GooString12formatDoubleEdPciibPS0_Pi"
  "__ZN9GooString22formatDoubleSmallAwareEdPciibPS0_Pi"
  "__ZN9GooString8appendfvEPKcPc"
  "__ZN9GooString6formatEPKcz"
  "__ZN9GooString7formatvEPKcPc"
  "__ZN9GooString7appendfEPKcz"
  "__ZN9GooString6insertEiPKci"
  "__ZN9GooString6insertEic"
  "__ZN9GooString6insertEiPS_"
  "__ZN9GooString3delEii"
  "__ZN9GooString9upperCaseEv"
  "__ZN9GooString9lowerCaseEv"
  "__ZNK9GooString3cmpEPS_"
  "__ZNK9GooString4cmpNEPS_i"
  "__ZNK9GooString3cmpEPKc"
  "__ZNK9GooString4cmpNEPKci"
  "__ZNK9GooString8endsWithEPKc"
  "__ZN9GooString13sanitizedNameEb"
  "__ZN8GooTimerC2Ev"
  "__ZN8GooTimerC1Ev"
  "__ZN8GooTimer5startEv"
  "__ZN8GooTimer4stopEv"
  "__ZN8GooTimer10getElapsedEv"
  "__ZN9ImgWriter11supportCMYKEv"
  "__ZN9ImgWriterD2Ev"
  "__ZN9ImgWriterD1Ev"
  "__ZN9ImgWriterD0Ev"
  "__ZTS9ImgWriter"
  "__ZTI9ImgWriter"
  "__ZTV9ImgWriter"
  "__ZN10JpegWriter11supportCMYKEv"
  "__Z13outputMessageP18jpeg_common_struct"
  "__ZN10JpegWriterD2Ev"
  "__ZTV10JpegWriter"
  "__ZN10JpegWriterD1Ev"
  "__ZN10JpegWriterD0Ev"
  "__ZN10JpegWriter4initEP7__sFILEiiii"
  "__ZN10JpegWriter13writePointersEPPhi"
  "__ZN10JpegWriter8writeRowEPPh"
  "__ZN10JpegWriter5closeEv"
  "__ZN10JpegWriterC2EibNS_6FormatE"
  "__ZN10JpegWriterC1EibNS_6FormatE"
  "__ZN10JpegWriterC2ENS_6FormatE"
  "__ZN10JpegWriterC1ENS_6FormatE"
  "__ZTS10JpegWriter"
  "__ZTI10JpegWriter"
  "__ZN12NetPBMWriter13writePointersEPPhi"
  "__ZN12NetPBMWriter5closeEv"
  "__ZN12NetPBMWriterD1Ev"
  "__ZTV12NetPBMWriter"
  "__ZN12NetPBMWriterD0Ev"
  "__ZN12NetPBMWriter4initEP7__sFILEiiii"
  "__ZN12NetPBMWriter8writeRowEPPh"
  "__ZN12NetPBMWriterC2ENS_6FormatE"
  "__ZN12NetPBMWriterC1ENS_6FormatE"
  "__ZTS12NetPBMWriter"
  "__ZTI12NetPBMWriter"
  "__ZN9PNGWriterD2Ev"
  "__ZTV9PNGWriter"
  "__ZN9PNGWriterD1Ev"
  "__ZN9PNGWriterD0Ev"
  "__ZN9PNGWriter4initEP7__sFILEiiii"
  "__ZN9PNGWriter13writePointersEPPhi"
  "__ZN9PNGWriter8writeRowEPPh"
  "__ZN9PNGWriter5closeEv"
  "__ZN9PNGWriterC2ENS_6FormatE"
  "__ZN9PNGWriterC1ENS_6FormatE"
  "__ZN9PNGWriter13setICCProfileEPKcPhi"
  "__ZN9PNGWriter14setSRGBProfileEv"
  "__ZTS9PNGWriter"
  "__ZTI9PNGWriter"
  "__ZN10TiffWriter11supportCMYKEv"
  "__ZN10TiffWriterD2Ev"
  "__ZTV10TiffWriter"
  "__ZN10TiffWriterD1Ev"
  "__ZN10TiffWriterD0Ev"
  "__ZN10TiffWriter4initEP7__sFILEiiii"
  "__ZN10TiffWriter13writePointersEPPhi"
  "__ZN10TiffWriter5closeEv"
  "__ZN10TiffWriter8writeRowEPPh"
  "__ZN10TiffWriterC2ENS_6FormatE"
  "__ZN10TiffWriterC1ENS_6FormatE"
  "__ZN10TiffWriter20setCompressionStringEPKc"
  "__ZTS10TiffWriter"
  "__ZTI10TiffWriter"
  "__Z13getCurrentDirv"
  "__Z12appendToPathP9GooStringPKc"
  "__Z8grabPathPc"
  "__Z14isAbsolutePathPc"
  "__Z10getModTimePc"
  "__Z12openTempFilePP9GooStringPP7__sFILEPKc"
  "__Z8openFilePKcS0_"
  "__Z7getLinePciP7__sFILE"
  "__Z6GfseekP7__sFILExi"
  "__Z6GftellP7__sFILE"
  "__Z10GoffsetMaxv"
  "__ZNK7GooFile4readEPcix"
  "__ZNK7GooFile4sizeEv"
  "__ZN7GooFile4openEPK9GooString"
  "__ZN9GDirEntryC2EPcS0_b"
  "__ZN9GDirEntryC1EPcS0_b"
  "__ZN9GDirEntryD2Ev"
  "__ZN9GDirEntryD1Ev"
  "__ZN4GDirC2EPcb"
  "__ZN4GDirC1EPcb"
  "__ZN4GDirD2Ev"
  "__ZN4GDirD1Ev"
  "__ZN4GDir12getNextEntryEv"
  "__ZN4GDir6rewindEv"
  "_timegm"
  "_gmalloc"
  "_gmalloc_checkoverflow"
  "_grealloc"
  "__Z22grealloc_checkoverflowPvj"
  "_gmallocn"
  "_gmallocn_checkoverflow"
  "_gmallocn3"
  "_gmallocn3_checkoverflow"
  "_greallocn"
  "_greallocn_checkoverflow"
  "_gfree"
  "_copyString"
  "_gstrndup"
  "_grandom_fill"
  "_grandom_double"
  "_gstrtod"
  "_gatof"
  "__ZN8FoFiBaseD2Ev"
  "__ZTV8FoFiBase"
  "__ZN8FoFiBaseD1Ev"
  "__ZN8FoFiBaseD0Ev"
  "__ZN8FoFiBaseC2EPcib"
  "__ZN8FoFiBaseC1EPcib"
  "__ZN8FoFiBase8readFileEPcPi"
  "__ZN8FoFiBase5getS8EiPb"
  "__ZN8FoFiBase5getU8EiPb"
  "__ZN8FoFiBase8getS16BEEiPb"
  "__ZN8FoFiBase8getU16BEEiPb"
  "__ZN8FoFiBase8getS32BEEiPb"
  "__ZN8FoFiBase8getU32BEEiPb"
  "__ZN8FoFiBase8getU32LEEiPb"
  "__ZN8FoFiBase9getUVarBEEiiPb"
  "__ZN8FoFiBase11checkRegionEii"
  "__ZTS8FoFiBase"
  "__ZTI8FoFiBase"
  "__ZN14FoFiIdentifier11identifyMemEPci"
  "__ZN14FoFiIdentifier12identifyFileEPc"
  "__ZN14FoFiIdentifier14identifyStreamEPFiPvES0_"
  "__ZN12FoFiTrueTypeD2Ev"
  "__ZTV12FoFiTrueType"
  "__ZN12FoFiTrueTypeD1Ev"
  "__ZN12FoFiTrueTypeD0Ev"
  "__ZN12FoFiTrueType11getNumCmapsEv"
  "__ZN12FoFiTrueType15getCmapPlatformEi"
  "__ZN12FoFiTrueType15getCmapEncodingEi"
  "__ZN12FoFiTrueType8findCmapEii"
  "__ZN12FoFiTrueType12mapCodeToGIDEij"
  "__ZN12FoFiTrueType12mapNameToGIDEPc"
  "__ZN12FoFiTrueType11cvtEncodingEPPcPFvPvPKciES2_"
  "__ZN12FoFiTrueType14cvtCharStringsEPPcPiPFvPvPKciES3_"
  "__ZN12FoFiTrueType10dumpStringEPhiPFvPvPKciES1_"
  "__ZN12FoFiTrueType20computeTableChecksumEPhi"
  "__ZN12FoFiTrueType9seekTableEPKc"
  "__ZN12FoFiTrueType11getCFFBlockEPPcPi"
  "__ZN12FoFiTrueType14getCIDToGIDMapEPi"
  "__ZN12FoFiTrueType13getFontMatrixEPd"
  "__ZN12FoFiTrueType14convertToType1EPcPPKcbPFvPvS2_iES4_"
  "__ZN12FoFiTrueType17convertToCIDType0EPcPiiPFvPvPKciES2_"
  "__ZN12FoFiTrueType14convertToType0EPcPiiPFvPvPKciES2_"
  "__ZN12FoFiTrueType18getEmbeddingRightsEv"
  "__ZN12FoFiTrueType13readPostTableEv"
  "__ZN12FoFiTrueType5parseEv"
  "__ZN12FoFiTrueTypeC2EPcibi"
  "__ZN12FoFiTrueTypeC1EPcibi"
  "__ZN12FoFiTrueType4loadEPci"
  "__ZN12FoFiTrueType4makeEPcii"
  "__ZN12FoFiTrueType9charToTagEPKc"
  "__ZN12FoFiTrueType9setupGSUBEPKcS1_"
  "__ZN12FoFiTrueType9setupGSUBEPKc"
  "__ZN12FoFiTrueType18checkGIDInCoverageEjj"
  "__ZN12FoFiTrueType18scanLookupSubTableEjj"
  "__ZN12FoFiTrueType14scanLookupListEjj"
  "__ZN12FoFiTrueType14doMapToVertGIDEj"
  "__ZN12FoFiTrueType12mapToVertGIDEj"
  "__ZSt16__insertion_sortIP12TrueTypeLocaN9__gnu_cxx5__ops15_Iter_comp_iterI28cmpTrueTypeLocaOffsetFunctorEEEvT_S7_T0_"
  "__ZSt13__adjust_heapIP12TrueTypeLocaiS0_N9__gnu_cxx5__ops15_Iter_comp_iterI28cmpTrueTypeLocaOffsetFunctorEEEvT_T0_S8_T1_T2_"
  "__ZSt13__heap_selectIP12TrueTypeLocaN9__gnu_cxx5__ops15_Iter_comp_iterI28cmpTrueTypeLocaOffsetFunctorEEEvT_S7_S7_T0_"
  "__ZSt16__introsort_loopIP12TrueTypeLocaiN9__gnu_cxx5__ops15_Iter_comp_iterI28cmpTrueTypeLocaOffsetFunctorEEEvT_S7_T0_T1_"
  "__ZSt13__adjust_heapIP12TrueTypeLocaiS0_N9__gnu_cxx5__ops15_Iter_comp_iterI25cmpTrueTypeLocaIdxFunctorEEEvT_T0_S8_T1_T2_"
  "__ZSt13__heap_selectIP12TrueTypeLocaN9__gnu_cxx5__ops15_Iter_comp_iterI25cmpTrueTypeLocaIdxFunctorEEEvT_S7_S7_T0_"
  "__ZSt16__introsort_loopIP12TrueTypeLocaiN9__gnu_cxx5__ops15_Iter_comp_iterI25cmpTrueTypeLocaIdxFunctorEEEvT_S7_T0_T1_"
  "__ZN12FoFiTrueType8cvtSfntsEPFvPvPKciES0_P9GooStringbPi"
  "__ZN12FoFiTrueType15convertToType42EPcPS0_PiPFvPvPKciES3_"
  "__ZN12FoFiTrueType17convertToCIDType2EPcPiibPFvPvPKciES2_"
  "__ZN12FoFiTrueType14convertToType0EPcPiibPFvPvPKciES2_"
  "__ZTS12FoFiTrueType"
  "__ZTI12FoFiTrueType"
  "__ZN9FoFiType1D2Ev"
  "__ZTV9FoFiType1"
  "__ZN9FoFiType1D1Ev"
  "__ZN9FoFiType1D0Ev"
  "__ZN9FoFiType111getNextLineEPc"
  "__ZN9FoFiType112writeEncodedEPPKcPFvPvS1_iES3_"
  "__ZN9FoFiType15parseEv"
  "__ZN9FoFiType17getNameEv"
  "__ZN9FoFiType111getEncodingEv"
  "__ZN9FoFiType113getFontMatrixEPd"
  "__ZN9FoFiType17undoPFBEv"
  "__ZN9FoFiType1C2EPcib"
  "__ZN9FoFiType1C1EPcib"
  "__ZN9FoFiType14loadEPc"
  "__ZN9FoFiType14makeEPci"
  "__ZTS9FoFiType1"
  "__ZTI9FoFiType1"
  "__ZN10FoFiType1CD2Ev"
  "__ZTV10FoFiType1C"
  "__ZN10FoFiType1CD1Ev"
  "__ZN10FoFiType1CD0Ev"
  "__ZN10FoFiType1CC2EPcib"
  "__ZN10FoFiType1CC1EPcib"
  "__ZN10FoFiType1C7getNameEv"
  "__ZN10FoFiType1C11getEncodingEv"
  "__ZN10FoFiType1C14getCIDToGIDMapEPi"
  "__ZN10FoFiType1C13getFontMatrixEPd"
  "__ZN10FoFiType1C6cvtNumEdbP9GooString"
  "__ZN10FoFiType1C13cvtGlyphWidthEbP9GooStringP17Type1CPrivateDict"
  "__ZN10FoFiType1C10eexecWriteEP14Type1CEexecBufPKc"
  "__ZN10FoFiType1C20eexecWriteCharstringEP14Type1CEexecBufPhi"
  "__ZN10FoFiType1C13writePSStringEPcPFvPvPKciES1_"
  "__ZN10FoFiType1C12readFDSelectEv"
  "__ZN10FoFiType1C11readCharsetEv"
  "__ZN10FoFiType1C5getOpEibPb"
  "__ZN10FoFiType1C15readPrivateDictEiiP17Type1CPrivateDict"
  "__ZN10FoFiType1C6readFDEiiP17Type1CPrivateDict"
  "__ZN10FoFiType1C8cvtGlyphEiiP9GooStringP11Type1CIndexP17Type1CPrivateDictb"
  "__ZN10FoFiType1C13eexecCvtGlyphEP14Type1CEexecBufPKciiP11Type1CIndexP17Type1CPrivateDict"
  "__ZN10FoFiType1C11readTopDictEv"
  "__ZN10FoFiType1C16getDeltaIntArrayEPii"
  "__ZN10FoFiType1C15getDeltaFPArrayEPdi"
  "__ZN10FoFiType1C8getIndexEiP11Type1CIndexPb"
  "__ZN10FoFiType1C14convertToType0EPcPiiPFvPvPKciES2_"
  "__ZN10FoFiType1C11getIndexValEP11Type1CIndexiP14Type1CIndexValPb"
  "__ZN10FoFiType1C9getStringEiPcPb"
  "__ZN10FoFiType1C12getGlyphNameEi"
  "__ZN10FoFiType1C14convertToType1EPcPPKcbPFvPvS2_iES4_"
  "__ZN10FoFiType1C17convertToCIDType0EPcPiiPFvPvPKciES2_"
  "__ZN10FoFiType1C13buildEncodingEv"
  "__ZN10FoFiType1C5parseEv"
  "__ZN10FoFiType1C4makeEPci"
  "__ZN10FoFiType1C4loadEPc"
  "__ZTS10FoFiType1C"
  "__ZTI10FoFiType1C"
  "__ZN6Splash18pipeRunSimpleMono8EP10SplashPipe"
  "__ZN6Splash17pipeRunSimpleRGB8EP10SplashPipe"
  "__ZN6Splash18pipeRunSimpleXBGR8EP10SplashPipe"
  "__ZN6Splash17pipeRunSimpleBGR8EP10SplashPipe"
  "__ZN6Splash14pipeRunAAMono8EP10SplashPipe"
  "__ZN6Splash13pipeRunAARGB8EP10SplashPipe"
  "__ZN6Splash14pipeRunAAXBGR8EP10SplashPipe"
  "__ZN6Splash13pipeRunAABGR8EP10SplashPipe"
  "__ZN6Splash18pipeRunSimpleMono1EP10SplashPipe"
  "__ZN6Splash14pipeRunAAMono1EP10SplashPipe"
  "__ZN6Splash7pipeRunEP10SplashPipe"
  "__ZN6Splash14clearModRegionEv"
  "__ZN6Splash8pipeInitEP10SplashPipeiiP13SplashPatternPhhbbbh"
  "__ZN6Splash9pipeSetXYEP10SplashPipeii"
  "__ZN6Splash8drawSpanEP10SplashPipeiiib"
  "__ZN6SplashC2EP12SplashBitmapbP18SplashScreenParams"
  "__ZN6SplashC1EP12SplashBitmapbP18SplashScreenParams"
  "__ZN6SplashC2EP12SplashBitmapbP12SplashScreen"
  "__ZN6SplashC1EP12SplashBitmapbP12SplashScreen"
  "__ZN6Splash9getMatrixEv"
  "__ZN6Splash16getStrokePatternEv"
  "__ZN6Splash14getFillPatternEv"
  "__ZN6Splash9getScreenEv"
  "__ZN6Splash12getBlendFuncEv"
  "__ZN6Splash14getStrokeAlphaEv"
  "__ZN6Splash12getFillAlphaEv"
  "__ZN6Splash12getLineWidthEv"
  "__ZN6Splash10getLineCapEv"
  "__ZN6Splash11getLineJoinEv"
  "__ZN6Splash13getMiterLimitEv"
  "__ZN6Splash11getFlatnessEv"
  "__ZN6Splash11getLineDashEv"
  "__ZN6Splash17getLineDashLengthEv"
  "__ZN6Splash16getLineDashPhaseEv"
  "__ZN6Splash15getStrokeAdjustEv"
  "__ZN6Splash7getClipEv"
  "__ZN6Splash11getSoftMaskEv"
  "__ZN6Splash21getInNonIsolatedGroupEv"
  "__ZN6Splash9setMatrixEPd"
  "__ZN6Splash16setStrokePatternEP13SplashPattern"
  "__ZN6Splash14setFillPatternEP13SplashPattern"
  "__ZN6Splash9setScreenEP12SplashScreen"
  "__ZN6Splash12setBlendFuncEPFvPhS0_S0_15SplashColorModeE"
  "__ZN6Splash14setStrokeAlphaEd"
  "__ZN6Splash12setFillAlphaEd"
  "__ZN6Splash15setPatternAlphaEdd"
  "__ZN6Splash17clearPatternAlphaEv"
  "__ZN6Splash16setFillOverprintEb"
  "__ZN6Splash18setStrokeOverprintEb"
  "__ZN6Splash16setOverprintModeEi"
  "__ZN6Splash12setLineWidthEd"
  "__ZN6Splash10setLineCapEi"
  "__ZN6Splash11setLineJoinEi"
  "__ZN6Splash13setMiterLimitEd"
  "__ZN6Splash11setFlatnessEd"
  "__ZN6Splash11setLineDashEPdid"
  "__ZN6Splash15setStrokeAdjustEb"
  "__ZN6Splash15clipResetToRectEdddd"
  "__ZN6Splash10clipToRectEdddd"
  "__ZN6Splash10clipToPathEP10SplashPathb"
  "__ZN6Splash11setSoftMaskEP12SplashBitmap"
  "__ZN6Splash21setInNonIsolatedGroupEP12SplashBitmapii"
  "__ZN6Splash11setTransferEPhS0_S0_S0_"
  "__ZN6Splash16setOverprintMaskEjb"
  "__ZN6Splash9saveStateEv"
  "__ZN6Splash12restoreStateEv"
  "__ZN6SplashD2Ev"
  "__ZN6SplashD1Ev"
  "__ZN6Splash5clearEPhh"
  "__ZN6Splash12strokeNarrowEP10SplashPath"
  "__ZN6Splash12flattenCurveEddddddddPddP10SplashPath"
  "__ZN6Splash11flattenPathEP10SplashPathPdd"
  "__ZN6Splash14makeDashedPathEP10SplashPath"
  "__ZN6Splash14pathAllOutsideEP10SplashPath"
  "__ZN6Splash15fillWithPatternEP10SplashPathbP13SplashPatternd"
  "__ZN6Splash7xorFillEP10SplashPathb"
  "__ZN6Splash10fillGlyph2EiiP17SplashGlyphBitmapb"
  "__ZN6Splash8fillCharEddiP10SplashFont"
  "__ZN6Splash9fillGlyphEddP17SplashGlyphBitmap"
  "__ZN6Splash13scaleMaskYdXdEPFbPvPhES0_iiiiP12SplashBitmap"
  "__ZN6Splash13scaleMaskYdXuEPFbPvPhES0_iiiiP12SplashBitmap"
  "__ZN6Splash13scaleMaskYuXdEPFbPvPhES0_iiiiP12SplashBitmap"
  "__ZN6Splash13scaleMaskYuXuEPFbPvPhES0_iiiiP12SplashBitmap"
  "__ZN6Splash9scaleMaskEPFbPvPhES0_iiii"
  "__ZN6Splash22arbitraryTransformMaskEPFbPvPhES0_iiPdb"
  "__ZN6Splash8blitMaskEP12SplashBitmapii16SplashClipResult"
  "__ZN6Splash14scaleImageYdXdEPFbPvPhS1_ES0_15SplashColorModeibiiiiP12SplashBitmap"
  "__ZN6Splash14scaleImageYdXuEPFbPvPhS1_ES0_15SplashColorModeibiiiiP12SplashBitmap"
  "__ZN6Splash14scaleImageYuXdEPFbPvPhS1_ES0_15SplashColorModeibiiiiP12SplashBitmap"
  "__ZN6Splash14scaleImageYuXuEPFbPvPhS1_ES0_15SplashColorModeibiiiiP12SplashBitmap"
  "__ZN6Splash10scaleImageEPFbPvPhS1_ES0_15SplashColorModeibiiiibb"
  "__ZN6Splash23arbitraryTransformImageEPFbPvPhS1_EPFvS0_P12SplashBitmapES0_15SplashColorModeibiiPdbb"
  "__ZN6Splash22scaleImageYuXuBilinearEPFbPvPhS1_ES0_15SplashColorModeibiiiiP12SplashBitmap"
  "__ZN6Splash13vertFlipImageEP12SplashBitmapiii"
  "__ZN6Splash13fillImageMaskEPFbPvPhES0_iiPdb"
  "__ZN6Splash16blitImageClippedEP12SplashBitmapbiiiiii"
  "__ZN6Splash9blitImageEP12SplashBitmapbii16SplashClipResult"
  "__ZN6Splash9drawImageEPFbPvPhS1_EPFvS0_P12SplashBitmapES0_15SplashColorModebiiPdbb"
  "__ZN6Splash9blitImageEP12SplashBitmapbii"
  "__ZN6Splash9compositeEP12SplashBitmapiiiiiibbbd"
  "__ZN6Splash19compositeBackgroundEPh"
  "__ZN6Splash25gouraudTriangleShadedFillEP18SplashGouraudColor"
  "__ZN6Splash15blitTransparentEP12SplashBitmapiiiiii"
  "__ZN6Splash14makeStrokePathEP10SplashPathdb"
  "__ZN6Splash10strokeWideEP10SplashPathd"
  "__ZN6Splash8dumpPathEP10SplashPath"
  "__ZN6Splash6strokeEP10SplashPath"
  "__ZN6Splash4fillEP10SplashPathb"
  "__ZN6Splash9dumpXPathEP11SplashXPath"
  "__ZN6Splash10shadedFillEP10SplashPathbP13SplashPattern"
  "__ZN12SplashBitmapC2Eiii15SplashColorModebbP7GooList"
  "__ZN12SplashBitmapC1Eiii15SplashColorModebbP7GooList"
  "__ZN12SplashBitmap4copyEPS_"
  "__ZN12SplashBitmapD2Ev"
  "__ZN12SplashBitmapD1Ev"
  "__ZN12SplashBitmap12writePNMFileEP7__sFILE"
  "__ZN12SplashBitmap12writePNMFileEPc"
  "__ZN12SplashBitmap17writeAlphaPGMFileEPc"
  "__ZN12SplashBitmap8getPixelEiiPh"
  "__ZN12SplashBitmap8getAlphaEii"
  "__ZN12SplashBitmap8takeDataEv"
  "__ZN12SplashBitmap10getRGBLineEiPh"
  "__ZN12SplashBitmap11getXBGRLineEiPhNS_14ConversionModeE"
  "__ZN12SplashBitmap13convertToXBGRENS_14ConversionModeE"
  "__ZN12SplashBitmap12writeImgFileEP9ImgWriterP7__sFILEii"
  "__ZN12SplashBitmap12writeImgFileE21SplashImageFileFormatP7__sFILEiiPKc"
  "__ZN12SplashBitmap12writeImgFileE21SplashImageFileFormatPciiPKc"
  "__ZN10SplashClipC2Eddddb"
  "__ZN10SplashClipC1Eddddb"
  "__ZN10SplashClipC2EPS_"
  "__ZN10SplashClipC1EPS_"
  "__ZN10SplashClipD2Ev"
  "__ZN10SplashClipD1Ev"
  "__ZN10SplashClip4growEi"
  "__ZN10SplashClip11resetToRectEdddd"
  "__ZN10SplashClip10clipToRectEdddd"
  "__ZN10SplashClip10clipToPathEP10SplashPathPddb"
  "__ZN10SplashClip8testRectEiiii"
  "__ZN10SplashClip8testSpanEiii"
  "__ZN10SplashClip10clipAALineEP12SplashBitmapPiS2_ib"
  "__ZN12SplashFTFontD2Ev"
  "__ZTV12SplashFTFont"
  "__ZN12SplashFTFontD1Ev"
  "__ZN12SplashFTFontD0Ev"
  "__ZN12SplashFTFont15getGlyphAdvanceEi"
  "__ZN12SplashFTFont9makeGlyphEiiiP17SplashGlyphBitmapiiP10SplashClipP16SplashClipResult"
  "__ZN12SplashFTFont12getGlyphPathEi"
  "__ZN12SplashFTFontC2EP16SplashFTFontFilePdS2_"
  "__ZN12SplashFTFontC1EP16SplashFTFontFilePdS2_"
  "__ZN12SplashFTFont8getGlyphEiiiP17SplashGlyphBitmapiiP10SplashClipP16SplashClipResult"
  "__ZTI10SplashFont"
  "__ZTS10SplashFont"
  "__ZTS12SplashFTFont"
  "__ZTI12SplashFTFont"
  "__ZN18SplashFTFontEngineC2EbbbP14FT_LibraryRec_"
  "__ZN18SplashFTFontEngineC1EbbbP14FT_LibraryRec_"
  "__ZN18SplashFTFontEngine4initEbbb"
  "__ZN18SplashFTFontEngineD2Ev"
  "__ZN18SplashFTFontEngineD1Ev"
  "__ZN18SplashFTFontEngine13loadType1FontEP16SplashFontFileIDP13SplashFontSrcPPKc"
  "__ZN18SplashFTFontEngine14loadType1CFontEP16SplashFontFileIDP13SplashFontSrcPPKc"
  "__ZN18SplashFTFontEngine19loadOpenTypeT1CFontEP16SplashFontFileIDP13SplashFontSrcPPKc"
  "__ZN18SplashFTFontEngine11loadCIDFontEP16SplashFontFileIDP13SplashFontSrc"
  "__ZN18SplashFTFontEngine19loadOpenTypeCFFFontEP16SplashFontFileIDP13SplashFontSrcPii"
  "__ZN18SplashFTFontEngine16loadTrueTypeFontEP16SplashFontFileIDP13SplashFontSrcPiii"
  "__ZN16SplashFTFontFileD2Ev"
  "__ZTV16SplashFTFontFile"
  "__ZN16SplashFTFontFileD1Ev"
  "__ZN16SplashFTFontFileD0Ev"
  "__ZN16SplashFTFontFile8makeFontEPdS0_"
  "__ZN16SplashFTFontFile13loadType1FontEP18SplashFTFontEngineP16SplashFontFileIDP13SplashFontSrcPPKc"
  "__ZN16SplashFTFontFile11loadCIDFontEP18SplashFTFontEngineP16SplashFontFileIDP13SplashFontSrcPii"
  "__ZN16SplashFTFontFile16loadTrueTypeFontEP18SplashFTFontEngineP16SplashFontFileIDP13SplashFontSrcPiii"
  "__ZN16SplashFTFontFileC2EP18SplashFTFontEngineP16SplashFontFileIDP13SplashFontSrcP11FT_FaceRec_Piibb"
  "__ZN16SplashFTFontFileC1EP18SplashFTFontEngineP16SplashFontFileIDP13SplashFontSrcP11FT_FaceRec_Piibb"
  "__ZTI14SplashFontFile"
  "__ZTS14SplashFontFile"
  "__ZTS16SplashFTFontFile"
  "__ZTI16SplashFTFontFile"
  "__ZN10SplashFont8getGlyphEiiiP17SplashGlyphBitmapiiP10SplashClipP16SplashClipResult"
  "__ZN10SplashFontC2EP14SplashFontFilePdS2_b"
  "__ZTV10SplashFont"
  "__ZN10SplashFontC1EP14SplashFontFilePdS2_b"
  "__ZN10SplashFont9initCacheEv"
  "__ZN10SplashFontD2Ev"
  "__ZN10SplashFontD1Ev"
  "__ZN10SplashFontD0Ev"
  "__ZN16SplashFontEngineC2Ebbbb"
  "__ZN16SplashFontEngineC1Ebbbb"
  "__ZN16SplashFontEngineD2Ev"
  "__ZN16SplashFontEngineD1Ev"
  "__ZN16SplashFontEngine11getFontFileEP16SplashFontFileID"
  "__ZN16SplashFontEngine13loadType1FontEP16SplashFontFileIDP13SplashFontSrcPPKc"
  "__ZN16SplashFontEngine14loadType1CFontEP16SplashFontFileIDP13SplashFontSrcPPKc"
  "__ZN16SplashFontEngine19loadOpenTypeT1CFontEP16SplashFontFileIDP13SplashFontSrcPPKc"
  "__ZN16SplashFontEngine11loadCIDFontEP16SplashFontFileIDP13SplashFontSrc"
  "__ZN16SplashFontEngine19loadOpenTypeCFFFontEP16SplashFontFileIDP13SplashFontSrcPii"
  "__ZN16SplashFontEngine16loadTrueTypeFontEP16SplashFontFileIDP13SplashFontSrcPiii"
  "__ZN16SplashFontEngine5getAAEv"
  "__ZN16SplashFontEngine5setAAEb"
  "__ZN16SplashFontEngine7getFontEP14SplashFontFilePdS2_"
  "__ZN14SplashFontFileC2EP16SplashFontFileIDP13SplashFontSrc"
  "__ZTV14SplashFontFile"
  "__ZN14SplashFontFileC1EP16SplashFontFileIDP13SplashFontSrc"
  "__ZN14SplashFontFile9incRefCntEv"
  "__ZN14SplashFontFile9decRefCntEv"
  "__ZN13SplashFontSrcC2Ev"
  "__ZN13SplashFontSrcC1Ev"
  "__ZN13SplashFontSrcD2Ev"
  "__ZN13SplashFontSrcD1Ev"
  "__ZN13SplashFontSrc3refEv"
  "__ZN13SplashFontSrc5unrefEv"
  "__ZN14SplashFontFileD2Ev"
  "__ZN14SplashFontFileD1Ev"
  "__ZN14SplashFontFileD0Ev"
  "__ZN13SplashFontSrc7setFileEP9GooStringb"
  "__ZN13SplashFontSrc7setFileEPKcb"
  "__ZN13SplashFontSrc6setBufEPcib"
  "__ZN16SplashFontFileIDC2Ev"
  "__ZTV16SplashFontFileID"
  "__ZN16SplashFontFileIDC1Ev"
  "__ZN16SplashFontFileIDD2Ev"
  "__ZN16SplashFontFileIDD1Ev"
  "__ZN16SplashFontFileIDD0Ev"
  "__ZN10SplashPathC2Ev"
  "__ZN10SplashPathC1Ev"
  "__ZN10SplashPathC2EPS_"
  "__ZN10SplashPathC1EPS_"
  "__ZN10SplashPathD2Ev"
  "__ZN10SplashPathD1Ev"
  "__ZN10SplashPath4growEi"
  "__ZN10SplashPath6appendEPS_"
  "__ZN10SplashPath6moveToEdd"
  "__ZN10SplashPath6lineToEdd"
  "__ZN10SplashPath7curveToEdddddd"
  "__ZN10SplashPath5closeEb"
  "__ZN10SplashPath19addStrokeAdjustHintEiiii"
  "__ZN10SplashPath6offsetEdd"
  "__ZN10SplashPath8getCurPtEPdS0_"
  "__ZN16SplashSolidColor12testPositionEii"
  "__ZN16SplashSolidColor8isStaticEv"
  "__ZN16SplashSolidColor6isCMYKEv"
  "__ZN16SplashSolidColorD2Ev"
  "__ZN16SplashSolidColorD1Ev"
  "__ZN16SplashSolidColor8getColorEiiPh"
  "__ZN16SplashSolidColorD0Ev"
  "__ZN16SplashSolidColor4copyEv"
  "__ZTV16SplashSolidColor"
  "__ZN13SplashPatternC2Ev"
  "__ZTV13SplashPattern"
  "__ZN13SplashPatternC1Ev"
  "__ZN13SplashPatternD2Ev"
  "__ZN13SplashPatternD1Ev"
  "__ZN13SplashPatternD0Ev"
  "__ZN16SplashSolidColorC2EPh"
  "__ZN16SplashSolidColorC1EPh"
  "__ZTS16SplashSolidColor"
  "__ZTI16SplashSolidColor"
  "__ZN12SplashScreenC2EP18SplashScreenParams"
  "__ZN12SplashScreenC1EP18SplashScreenParams"
  "__ZN12SplashScreen20buildDispersedMatrixEiiiii"
  "__ZN12SplashScreen20buildClusteredMatrixEv"
  "__ZN12SplashScreen8distanceEiiii"
  "__ZN12SplashScreenC2EPS_"
  "__ZN12SplashScreenC1EPS_"
  "__ZN12SplashScreenD2Ev"
  "__ZN12SplashScreenD1Ev"
  "__ZSt13__adjust_heapIP17SplashScreenPointiS0_N9__gnu_cxx5__ops15_Iter_comp_iterI19cmpDistancesFunctorEEEvT_T0_S8_T1_T2_"
  "__ZSt13__heap_selectIP17SplashScreenPointN9__gnu_cxx5__ops15_Iter_comp_iterI19cmpDistancesFunctorEEEvT_S7_S7_T0_"
  "__ZSt16__introsort_loopIP17SplashScreenPointiN9__gnu_cxx5__ops15_Iter_comp_iterI19cmpDistancesFunctorEEEvT_S7_T0_T1_"
  "__ZN12SplashScreen14buildSCDMatrixEi"
  "__ZN12SplashScreen12createMatrixEv"
  "__ZN11SplashStateC2EiibP18SplashScreenParams"
  "__ZN11SplashStateC1EiibP18SplashScreenParams"
  "__ZN11SplashStateC2EiibP12SplashScreen"
  "__ZN11SplashStateC1EiibP12SplashScreen"
  "__ZN11SplashStateC2EPS_"
  "__ZN11SplashStateC1EPS_"
  "__ZN11SplashStateD2Ev"
  "__ZN11SplashStateD1Ev"
  "__ZN11SplashState16setStrokePatternEP13SplashPattern"
  "__ZN11SplashState14setFillPatternEP13SplashPattern"
  "__ZN11SplashState9setScreenEP12SplashScreen"
  "__ZN11SplashState11setLineDashEPdid"
  "__ZN11SplashState11setSoftMaskEP12SplashBitmap"
  "__ZN11SplashState11setTransferEPhS0_S0_S0_"
  "__ZN11SplashXPath12strokeAdjustEP17SplashXPathAdjustPdS2_"
  "__ZN11SplashXPathC2EPS_"
  "__ZN11SplashXPathC1EPS_"
  "__ZN11SplashXPathD2Ev"
  "__ZN11SplashXPathD1Ev"
  "__ZN11SplashXPath4growEi"
  "__ZN11SplashXPath10addSegmentEdddd"
  "__ZN11SplashXPath8addCurveEdddddddddbbbb"
  "__ZN11SplashXPathC2EP10SplashPathPddbbi"
  "__ZN11SplashXPathC1EP10SplashPathPddbbi"
  "__ZN11SplashXPath7aaScaleEv"
  "__ZSt22__move_median_to_firstIP14SplashXPathSegN9__gnu_cxx5__ops15_Iter_comp_iterI19cmpXPathSegsFunctorEEEvT_S7_S7_S7_T0_"
  "__ZSt13__adjust_heapIP14SplashXPathSegiS0_N9__gnu_cxx5__ops15_Iter_comp_iterI19cmpXPathSegsFunctorEEEvT_T0_S8_T1_T2_"
  "__ZSt13__heap_selectIP14SplashXPathSegN9__gnu_cxx5__ops15_Iter_comp_iterI19cmpXPathSegsFunctorEEEvT_S7_S7_T0_"
  "__ZSt16__introsort_loopIP14SplashXPathSegiN9__gnu_cxx5__ops15_Iter_comp_iterI19cmpXPathSegsFunctorEEEvT_S7_T0_T1_"
  "__ZN11SplashXPath4sortEv"
  "__ZN18SplashXPathScannerD2Ev"
  "__ZN18SplashXPathScannerD1Ev"
  "__ZN18SplashXPathScanner9getBBoxAAEPiS0_S0_S0_"
  "__ZN18SplashXPathScanner13getSpanBoundsEiPiS0_"
  "__ZN18SplashXPathScanner4testEii"
  "__ZN18SplashXPathScanner8testSpanEiii"
  "__ZN18SplashXPathScanner11getNextSpanEiPiS0_"
  "__ZN18SplashXPathScanner15addIntersectionEddjiii"
  "__ZN18SplashXPathScanner12renderAALineEP12SplashBitmapPiS2_ib"
  "__ZN18SplashXPathScanner10clipAALineEP12SplashBitmapPiS2_i"
  "__ZSt16__insertion_sortIP15SplashIntersectN9__gnu_cxx5__ops15_Iter_comp_iterI19cmpIntersectFunctorEEEvT_S7_T0_"
  "__ZSt13__adjust_heapIP15SplashIntersectiS0_N9__gnu_cxx5__ops15_Iter_comp_iterI19cmpIntersectFunctorEEEvT_T0_S8_T1_T2_"
  "__ZSt13__heap_selectIP15SplashIntersectN9__gnu_cxx5__ops15_Iter_comp_iterI19cmpIntersectFunctorEEEvT_S7_S7_T0_"
  "__ZSt16__introsort_loopIP15SplashIntersectiN9__gnu_cxx5__ops15_Iter_comp_iterI19cmpIntersectFunctorEEEvT_S7_T0_T1_"
  "__ZN18SplashXPathScanner20computeIntersectionsEv"
  "__ZN18SplashXPathScannerC2EP11SplashXPathbii"
  "__ZN18SplashXPathScannerC1EP11SplashXPathbii"
